Product: MDK-ARM Professional 5.10
Component: ARM Compiler 5.04 update 1 (build 49)
Tool: armlink [5040049]

==============================================================================

Section Cross References

    system_stm32f4xx.o(.text) refers to stm32f4xx_rcc.o(.text) for RCC_AHB1PeriphClockCmd
    system_stm32f4xx.o(.text) refers to stm32f4xx_gpio.o(.text) for GPIO_PinAFConfig
    system_stm32f4xx.o(.text) refers to stm32f4xx_fmc.o(.text) for FMC_SDRAMInit
    system_stm32f4xx.o(.text) refers to system_stm32f4xx.o(.data) for .data
    startup_stm32f427x.o(RESET) refers to startup_stm32f427x.o(STACK) for __initial_sp
    startup_stm32f427x.o(RESET) refers to startup_stm32f427x.o(.text) for Reset_Handler
    startup_stm32f427x.o(RESET) refers to stm32f4xx_it.o(.text) for NMI_Handler
    startup_stm32f427x.o(RESET) refers to port.o(.emb_text) for SVC_Handler
    startup_stm32f427x.o(.text) refers to system_stm32f4xx.o(.text) for SystemInit
    startup_stm32f427x.o(.text) refers to entry.o(.ARM.Collect$$$$00000000) for __main
    api_lib.o(.text) refers to api_msg.o(.text) for netconn_alloc
    api_lib.o(.text) refers to tcpip.o(.text) for tcpip_apimsg
    api_lib.o(.text) refers to sys_arch.o(.text) for sys_sem_valid
    api_lib.o(.text) refers to memp.o(.text) for memp_free
    api_msg.o(.text) refers to sys_arch.o(.text) for sys_mbox_valid
    api_msg.o(.text) refers to pbuf.o(.text) for pbuf_alloc
    api_msg.o(.text) refers to memp.o(.text) for memp_malloc
    api_msg.o(.text) refers to netbuf.o(.text) for netbuf_delete
    api_msg.o(.text) refers to tcp.o(.text) for tcp_recved
    api_msg.o(.text) refers to tcp_out.o(.text) for tcp_write
    api_msg.o(.text) refers to ip.o(.data) for current_iphdr_src
    api_msg.o(.text) refers to raw.o(.text) for raw_remove
    api_msg.o(.text) refers to udp.o(.text) for udp_remove
    err.o(.text) refers to err.o(.data) for .data
    err.o(.data) refers to err.o(.conststring) for .conststring
    netbuf.o(.text) refers to memp.o(.text) for memp_malloc
    netbuf.o(.text) refers to pbuf.o(.text) for pbuf_free
    sockets.o(.text) refers to sys_arch.o(.text) for sys_arch_protect
    sockets.o(.text) refers to api_lib.o(.text) for netconn_accept
    sockets.o(.text) refers to def.o(.text) for lwip_htons
    sockets.o(.text) refers to memcpya.o(.text) for __aeabi_memcpy
    sockets.o(.text) refers to pbuf.o(.text) for pbuf_free
    sockets.o(.text) refers to netbuf.o(.text) for netbuf_delete
    sockets.o(.text) refers to sockets.o(.bss) for .bss
    sockets.o(.text) refers to sockets.o(.constdata) for .constdata
    sockets.o(.text) refers to sockets.o(.data) for .data
    sockets.o(.text) refers to tcpip.o(.text) for tcpip_callback_with_block
    tcpip.o(.text) refers to timers.o(.text) for sys_timeouts_mbox_fetch
    tcpip.o(.text) refers to etharp.o(.text) for ethernet_input
    tcpip.o(.text) refers to ip.o(.text) for ip_input
    tcpip.o(.text) refers to memp.o(.text) for memp_free
    tcpip.o(.text) refers to sys_arch.o(.text) for sys_mbox_valid
    tcpip.o(.text) refers to init.o(.text) for lwip_init
    tcpip.o(.text) refers to pbuf.o(.text) for pbuf_free
    tcpip.o(.text) refers to tcpip.o(.data) for .data
    tcpip.o(.text) refers to mem.o(.text) for mem_free
    dhcp.o(.text) refers to pbuf.o(.text) for pbuf_alloc
    dhcp.o(.text) refers to def.o(.text) for lwip_htonl
    dhcp.o(.text) refers to udp.o(.text) for udp_sendto_if
    dhcp.o(.text) refers to etharp.o(.text) for etharp_query
    dhcp.o(.text) refers to dhcp.o(.data) for .data
    dhcp.o(.text) refers to ip_addr.o(.constdata) for ip_addr_broadcast
    dhcp.o(.text) refers to netif.o(.text) for netif_set_down
    dhcp.o(.text) refers to memseta.o(.text) for __aeabi_memclr4
    dhcp.o(.text) refers to mem.o(.text) for mem_free
    dhcp.o(.text) refers to netif.o(.data) for netif_list
    dhcp.o(.text) refers to ip_addr.o(.constdata) for ip_addr_any
    dhcp.o(.text) refers to dhcp.o(.bss) for .bss
    init.o(.text) refers to stats.o(.text) for stats_init
    init.o(.text) refers to sys_arch.o(.text) for sys_init
    init.o(.text) refers to mem.o(.text) for mem_init
    init.o(.text) refers to memp.o(.text) for memp_init
    init.o(.text) refers to netif.o(.text) for netif_init
    init.o(.text) refers to sockets.o(.text) for lwip_socket_init
    init.o(.text) refers to udp.o(.text) for udp_init
    init.o(.text) refers to tcp.o(.text) for tcp_init
    init.o(.text) refers to timers.o(.text) for sys_timeouts_init
    mem.o(.text) refers to sys_arch.o(.text) for sys_sem_new
    mem.o(.text) refers to memseta.o(.text) for __aeabi_memclr
    mem.o(.text) refers to mem.o(.bss) for .bss
    mem.o(.text) refers to mem.o(.data) for .data
    mem.o(.text) refers to stats.o(.bss) for lwip_stats
    memp.o(.text) refers to sys_arch.o(.text) for sys_arch_protect
    memp.o(.text) refers to stats.o(.bss) for lwip_stats
    memp.o(.text) refers to memp.o(.constdata) for .constdata
    memp.o(.text) refers to memp.o(.bss) for .bss
    memp.o(.data) refers to memp.o(.conststring) for .conststring
    netif.o(.text) refers to tcp.o(.text) for tcp_abort
    netif.o(.text) refers to etharp.o(.text) for etharp_cleanup_netif
    netif.o(.text) refers to dhcp.o(.text) for dhcp_network_changed
    netif.o(.text) refers to tcp.o(.data) for tcp_active_pcbs
    netif.o(.text) refers to netif.o(.data) for .data
    pbuf.o(.text) refers to sys_arch.o(.text) for sys_arch_protect
    pbuf.o(.text) refers to mem.o(.text) for mem_free
    pbuf.o(.text) refers to memp.o(.text) for memp_free
    pbuf.o(.text) refers to memcpya.o(.text) for __aeabi_memcpy
    pbuf.o(.text) refers to strlen.o(.text) for strlen
    raw.o(.text) refers to pbuf.o(.text) for pbuf_header
    raw.o(.text) refers to ip.o(.text) for ip_route
    raw.o(.text) refers to memp.o(.text) for memp_free
    raw.o(.text) refers to memseta.o(.text) for __aeabi_memclr4
    raw.o(.text) refers to raw.o(.data) for .data
    raw.o(.text) refers to ip.o(.data) for current_iphdr_dest
    stats.o(.text) refers to memcpya.o(.text) for __aeabi_memcpy4
    stats.o(.text) refers to stats.o(.constdata) for .constdata
    stats.o(.text) refers to stats.o(.bss) for .bss
    stats.o(.constdata) refers to stats.o(.conststring) for .conststring
    sys.o(.text) refers to sys_arch.o(.text) for sys_sem_new
    tcp.o(.text) refers to pbuf.o(.text) for pbuf_free
    tcp.o(.text) refers to memp.o(.text) for memp_free
    tcp.o(.text) refers to tcp_out.o(.text) for tcp_zero_window_probe
    tcp.o(.text) refers to timers.o(.text) for tcp_timer_needed
    tcp.o(.text) refers to tcp.o(.data) for .data
    tcp.o(.text) refers to tcp.o(.constdata) for .constdata
    tcp.o(.text) refers to ip.o(.text) for ip_route
    tcp.o(.text) refers to stats.o(.bss) for lwip_stats
    tcp.o(.text) refers to memseta.o(.text) for __aeabi_memclr4
    tcp.o(.constdata) refers to tcp.o(.conststring) for .conststring
    tcp.o(.constdata) refers to tcp.o(.data) for tcp_listen_pcbs
    tcp_in.o(.text) refers to tcp_out.o(.text) for tcp_rexmit_fast
    tcp_in.o(.text) refers to pbuf.o(.text) for pbuf_clen
    tcp_in.o(.text) refers to def.o(.text) for lwip_ntohs
    tcp_in.o(.text) refers to tcp.o(.text) for tcp_seg_free
    tcp_in.o(.text) refers to tcp_in.o(.data) for .data
    tcp_in.o(.text) refers to tcp.o(.data) for tcp_ticks
    tcp_in.o(.text) refers to tcp_in.o(.bss) for .bss
    tcp_in.o(.text) refers to timers.o(.text) for tcp_timer_needed
    tcp_in.o(.text) refers to ip.o(.data) for current_iphdr_src
    tcp_in.o(.text) refers to ip_addr.o(.text) for ip4_addr_isbroadcast
    tcp_in.o(.text) refers to memp.o(.text) for memp_free
    tcp_in.o(.text) refers to stats.o(.bss) for lwip_stats
    tcp_out.o(.text) refers to pbuf.o(.text) for pbuf_alloc
    tcp_out.o(.text) refers to def.o(.text) for lwip_htons
    tcp_out.o(.text) refers to memp.o(.text) for memp_malloc
    tcp_out.o(.text) refers to tcp.o(.text) for tcp_seg_free
    tcp_out.o(.text) refers to memcpya.o(.text) for __aeabi_memcpy
    tcp_out.o(.text) refers to stats.o(.bss) for lwip_stats
    tcp_out.o(.text) refers to ip.o(.text) for ip_output
    tcp_out.o(.text) refers to tcp.o(.data) for tcp_ticks
    tcp_out.o(.text) refers to tcp_in.o(.data) for tcp_input_pcb
    timers.o(.text) refers to memp.o(.text) for memp_malloc
    timers.o(.text) refers to tcp.o(.text) for tcp_tmr
    timers.o(.text) refers to etharp.o(.text) for etharp_tmr
    timers.o(.text) refers to dhcp.o(.text) for dhcp_coarse_tmr
    timers.o(.text) refers to sys_arch.o(.text) for sys_arch_mbox_fetch
    timers.o(.text) refers to timers.o(.data) for .data
    timers.o(.text) refers to tcp.o(.data) for tcp_active_pcbs
    udp.o(.text) refers to pbuf.o(.text) for pbuf_header
    udp.o(.text) refers to ip_addr.o(.text) for ip4_addr_isbroadcast
    udp.o(.text) refers to def.o(.text) for lwip_ntohs
    udp.o(.text) refers to icmp.o(.text) for icmp_dest_unreach
    udp.o(.text) refers to ip.o(.text) for ip_output_if
    udp.o(.text) refers to memp.o(.text) for memp_free
    udp.o(.text) refers to memseta.o(.text) for __aeabi_memclr4
    udp.o(.text) refers to stats.o(.bss) for lwip_stats
    udp.o(.text) refers to ip.o(.data) for current_iphdr_dest
    udp.o(.text) refers to udp.o(.data) for .data
    icmp.o(.text) refers to pbuf.o(.text) for pbuf_header
    icmp.o(.text) refers to ip_addr.o(.text) for ip4_addr_isbroadcast
    icmp.o(.text) refers to inet_chksum.o(.text) for inet_chksum_pbuf
    icmp.o(.text) refers to ip.o(.text) for ip_output_if
    icmp.o(.text) refers to memcpya.o(.text) for __aeabi_memcpy
    icmp.o(.text) refers to stats.o(.bss) for lwip_stats
    icmp.o(.text) refers to ip.o(.data) for current_iphdr_dest
    inet_chksum.o(.text) refers to def.o(.text) for lwip_htons
    ip.o(.text) refers to pbuf.o(.text) for pbuf_free
    ip.o(.text) refers to def.o(.text) for lwip_ntohs
    ip.o(.text) refers to ip_addr.o(.text) for ip4_addr_isbroadcast
    ip.o(.text) refers to raw.o(.text) for raw_input
    ip.o(.text) refers to udp.o(.text) for udp_input
    ip.o(.text) refers to tcp_in.o(.text) for tcp_input
    ip.o(.text) refers to icmp.o(.text) for icmp_input
    ip.o(.text) refers to netif.o(.data) for netif_list
    ip.o(.text) refers to stats.o(.bss) for lwip_stats
    ip.o(.text) refers to ip.o(.data) for .data
    ip_addr.o(.text) refers to def.o(.text) for lwip_htonl
    ip_addr.o(.text) refers to ip_addr.o(.bss) for .bss
    etharp.o(.text) refers to pbuf.o(.text) for pbuf_free
    etharp.o(.text) refers to def.o(.text) for lwip_htons
    etharp.o(.text) refers to dhcp.o(.text) for dhcp_arp_reply
    etharp.o(.text) refers to ip_addr.o(.text) for ip4_addr_isbroadcast
    etharp.o(.text) refers to etharp.o(.bss) for .bss
    etharp.o(.text) refers to etharp.o(.constdata) for .constdata
    etharp.o(.text) refers to stats.o(.bss) for lwip_stats
    etharp.o(.text) refers to etharp.o(.data) for .data
    etharp.o(.text) refers to memcmp.o(.text) for memcmp
    etharp.o(.text) refers to ip.o(.text) for ip_input
    ethernetif.o(.text) refers to queue.o(.text) for xQueueGenericReceive
    ethernetif.o(.text) refers to pbuf.o(.text) for pbuf_free
    ethernetif.o(.text) refers to stm32f4x7_eth.o(.text) for ETH_MACAddressConfig
    ethernetif.o(.text) refers to tasks.o(.text) for xTaskGenericCreate
    ethernetif.o(.text) refers to memcpya.o(.text) for __aeabi_memcpy
    ethernetif.o(.text) refers to etharp.o(.text) for etharp_tmr
    ethernetif.o(.text) refers to timers.o(.text) for sys_timeout
    ethernetif.o(.text) refers to ethernetif.o(.data) for .data
    ethernetif.o(.text) refers to stm32f4x7_eth.o(.bss) for Tx_Buff
    ethernetif.o(.text) refers to stm32f4x7_eth.o(.bss) for DMATxDscrTab
    ethernetif.o(.text) refers to stm32f4x7_eth.o(.bss) for Rx_Buff
    ethernetif.o(.text) refers to stm32f4x7_eth.o(.bss) for DMARxDscrTab
    ethernetif.o(.text) refers to stm32f4x7_eth.o(.data) for DMATxDescToSet
    sys_arch.o(.text) refers to queue.o(.text) for xQueueGenericCreate
    sys_arch.o(.text) refers to tasks.o(.text) for xTaskGetTickCount
    sys_arch.o(.text) refers to port.o(.text) for vPortEnterCritical
    sys_arch.o(.text) refers to stats.o(.bss) for lwip_stats
    sys_arch.o(.text) refers to sys_arch.o(.data) for .data
    stm32f4xx_gpio.o(.text) refers to stm32f4xx_rcc.o(.text) for RCC_AHB1PeriphResetCmd
    stm32f4xx_rcc.o(.text) refers to stm32f4xx_rcc.o(.data) for .data
    stm32f4xx_sdio.o(.text) refers to stm32f4xx_rcc.o(.text) for RCC_APB2PeriphResetCmd
    stm32f4xx_syscfg.o(.text) refers to stm32f4xx_rcc.o(.text) for RCC_APB2PeriphResetCmd
    stm32f4xx_usart.o(.text) refers to stm32f4xx_rcc.o(.text) for RCC_APB2PeriphResetCmd
    stm32f4xx_tim.o(.text) refers to stm32f4xx_rcc.o(.text) for RCC_APB2PeriphResetCmd
    stm32f4x7_eth.o(.text) refers to stm32f4xx_rcc.o(.text) for RCC_AHB1PeriphResetCmd
    stm32f4x7_eth.o(.text) refers to main.o(.text) for Delay
    stm32f4x7_eth.o(.text) refers to stm32f4xx_usart.o(.text) for UART_printf
    stm32f4x7_eth.o(.text) refers to stm32f4x7_eth.o(.data) for .data
    stm32f4x7_eth.o(.text) refers to stm32f4x7_eth.o(.bss) for .bss
    port.o(.emb_text) refers to tasks.o(.text) for vTaskSwitchContext
    port.o(.emb_text) refers to tasks.o(.data) for pxCurrentTCB
    port.o(.text) refers to port.o(.emb_text) for __asm___6_port_c_39a90d8d__prvEnableVFP
    port.o(.text) refers to tasks.o(.text) for vTaskIncrementTick
    port.o(.text) refers to system_stm32f4xx.o(.data) for SystemCoreClock
    port.o(.text) refers to port.o(.data) for .data
    tasks.o(.text) refers to port.o(.emb_text) for ulPortSetInterruptMask
    tasks.o(.text) refers to heap_4.o(.text) for pvPortMalloc
    tasks.o(.text) refers to memseta.o(.text) for __aeabi_memset
    tasks.o(.text) refers to strncpy.o(.text) for strncpy
    tasks.o(.text) refers to list.o(.text) for vListInitialiseItem
    tasks.o(.text) refers to port.o(.text) for pxPortInitialiseStack
    tasks.o(.text) refers to tasks.o(.data) for .data
    tasks.o(.text) refers to tasks.o(.bss) for .bss
    tasks.o(.text) refers to printf3.o(i.__0sprintf$3) for __2sprintf
    tasks.o(.text) refers to strcat.o(.text) for strcat
    tasks.o(.text) refers to main.o(.text) for vApplicationStackOverflowHook
    tasks.o(.text) refers to memcmp.o(.text) for memcmp
    tasks.o(.text) refers to tasks.o(.constdata) for .constdata
    croutine.o(.text) refers to heap_4.o(.text) for pvPortMalloc
    croutine.o(.text) refers to list.o(.text) for vListInitialise
    croutine.o(.text) refers to tasks.o(.text) for xTaskGetTickCount
    croutine.o(.text) refers to port.o(.emb_text) for ulPortSetInterruptMask
    croutine.o(.text) refers to croutine.o(.data) for .data
    croutine.o(.text) refers to croutine.o(.bss) for .bss
    queue.o(.text) refers to port.o(.text) for vPortEnterCritical
    queue.o(.text) refers to list.o(.text) for vListInitialise
    queue.o(.text) refers to port.o(.emb_text) for ulPortSetInterruptMask
    queue.o(.text) refers to tasks.o(.text) for xTaskRemoveFromEventList
    queue.o(.text) refers to heap_4.o(.text) for pvPortMalloc
    queue.o(.text) refers to memcpya.o(.text) for __aeabi_memcpy
    queue.o(.text) refers to queue.o(.bss) for .bss
    heap_4.o(.text) refers to tasks.o(.text) for vTaskSuspendAll
    heap_4.o(.text) refers to port.o(.emb_text) for ulPortSetInterruptMask
    heap_4.o(.text) refers to heap_4.o(.data) for .data
    heap_4.o(.text) refers to heap_4.o(.bss) for .bss
    sdio_sd.o(.text) refers to stm32f4xx_dma.o(.text) for DMA_ClearFlag
    sdio_sd.o(.text) refers to stm32f4xx_sdio.o(.text) for SDIO_ClearFlag
    sdio_sd.o(.text) refers to sdio_sd.o(.bss) for .bss
    sdio_sd.o(.text) refers to sdio_sd.o(.data) for .data
    sdio_sd.o(.text) refers to misc.o(.text) for NVIC_PriorityGroupConfig
    sdio_sd.o(.text) refers to stm32f4xx_gpio.o(.text) for GPIO_ReadInputDataBit
    sdio_sd.o(.text) refers to stm32f4xx_rcc.o(.text) for RCC_APB2PeriphClockCmd
    ff.o(.text) refers to diskio.o(.text) for disk_write
    ff.o(.text) refers to ff.o(.constdata) for .constdata
    ff.o(.text) refers to ff.o(.data) for .data
    ff.o(.text) refers to fattime.o(.text) for get_fattime
    fattime.o(.text) refers to stm32f4xx_rtc.o(.text) for RTC_GetTime
    diskio.o(.text) refers to sdio_sd.o(.text) for SD_Init
    diskio.o(.text) refers to memcpya.o(.text) for __aeabi_memcpy
    main.o(.text) refers to usart4.o(.text) for uart_print
    main.o(.text) refers to sys_config.o(.text) for rc_config_start
    main.o(.text) refers to stm32f4x7_eth_bsp.o(.text) for ETH_BSP_Config
    main.o(.text) refers to netconf.o(.text) for LwIP_Init
    main.o(.text) refers to tasks.o(.text) for xTaskGenericCreate
    main.o(.text) refers to queue.o(.text) for xQueueCreateMutex
    main.o(.text) refers to ftp_server.o(.text) for vBasicFTPServer
    main.o(.text) refers to udp_server.o(.text) for vUDP_serv_recv
    main.o(.text) refers to usart1.o(.text) for v_rs485_task_n1
    main.o(.text) refers to usart2.o(.text) for v_rs485_task_n2
    main.o(.text) refers to usart3.o(.text) for v_rs485_task_n3
    main.o(.text) refers to algbloc.o(.text) for vAlg_block_Task
    main.o(.text) refers to main.o(.data) for .data
    stm32f4xx_it.o(.text) refers to port.o(.text) for xPortSysTickHandler
    stm32f4xx_it.o(.text) refers to stm32f4xx_exti.o(.text) for EXTI_GetITStatus
    stm32f4xx_it.o(.text) refers to queue.o(.text) for xQueueGenericSendFromISR
    stm32f4xx_it.o(.text) refers to stm32f4x7_eth.o(.text) for ETH_GetDMAFlagStatus
    stm32f4xx_it.o(.text) refers to sdio_sd.o(.text) for SD_ProcessIRQSrc
    stm32f4xx_it.o(.text) refers to stm32f4xx_dma.o(.text) for DMA_GetITStatus
    stm32f4xx_it.o(.text) refers to stm32f4xx_usart.o(.text) for USART_DMACmd
    stm32f4xx_it.o(.text) refers to usart1.o(.text) for modbus_IRQ_n1
    stm32f4xx_it.o(.text) refers to stm32f4xx_gpio.o(.text) for GPIO_ResetBits
    stm32f4xx_it.o(.text) refers to usart2.o(.text) for modbus_IRQ_n2
    stm32f4xx_it.o(.text) refers to usart3.o(.text) for modbus_IRQ_n3
    stm32f4xx_it.o(.text) refers to usart4.o(.text) for modbus_IRQ_n4
    stm32f4xx_it.o(.text) refers to stm32f4xx_tim.o(.text) for TIM_GetITStatus
    stm32f4xx_it.o(.text) refers to algbloc.o(.text) for AlgCicleTimeInc
    stm32f4xx_it.o(.text) refers to stm32f4x7_eth_bsp.o(.data) for ETH_link_xSemaphore
    stm32f4xx_it.o(.text) refers to ethernetif.o(.data) for s_xSemaphore
    stm32f4xx_it.o(.text) refers to main.o(.data) for xMutex_USART1_USART3_DmaSend
    stm32f4xx_it.o(.text) refers to stm32f4xx_it.o(.data) for .data
    stm32f4x7_eth_bsp.o(.text) refers to queue.o(.text) for xQueueGenericReceive
    stm32f4x7_eth_bsp.o(.text) refers to stm32f4x7_eth.o(.text) for ETH_ReadPHYRegister
    stm32f4x7_eth_bsp.o(.text) refers to netif.o(.text) for netif_set_link_up
    stm32f4x7_eth_bsp.o(.text) refers to stm32f4xx_rcc.o(.text) for RCC_AHB1PeriphClockCmd
    stm32f4x7_eth_bsp.o(.text) refers to stm32f4xx_gpio.o(.text) for GPIO_Init
    stm32f4x7_eth_bsp.o(.text) refers to stm32f4xx_syscfg.o(.text) for SYSCFG_EXTILineConfig
    stm32f4x7_eth_bsp.o(.text) refers to stm32f4xx_exti.o(.text) for EXTI_Init
    stm32f4x7_eth_bsp.o(.text) refers to misc.o(.text) for NVIC_Init
    stm32f4x7_eth_bsp.o(.text) refers to tasks.o(.text) for xTaskGenericCreate
    stm32f4x7_eth_bsp.o(.text) refers to main.o(.text) for Delay
    stm32f4x7_eth_bsp.o(.text) refers to stm32f4x7_eth_bsp.o(.data) for .data
    stm32f4x7_eth_bsp.o(.text) refers to netconf.o(.bss) for xnetif
    stm32f4x7_eth_bsp.o(.text) refers to stm32f4x7_eth_bsp.o(.bss) for .bss
    netconf.o(.text) refers to tcpip.o(.text) for tcpip_init
    netconf.o(.text) refers to netif.o(.text) for netif_add
    netconf.o(.text) refers to netconf.o(.data) for .data
    netconf.o(.text) refers to ethernetif.o(.text) for ethernetif_init
    netconf.o(.text) refers to netconf.o(.bss) for .bss
    netconf.o(.text) refers to stm32f4x7_eth_bsp.o(.data) for EthStatus
    netconf.o(.text) refers to stm32f4x7_eth_bsp.o(.text) for ETH_link_callback
    sys_config.o(.text) refers to ff.o(.text) for f_mount
    sys_config.o(.text) refers to strcpy.o(.text) for strcpy
    sys_config.o(.text) refers to strlen.o(.text) for strlen
    sys_config.o(.text) refers to usart4.o(.text) for uart_print
    sys_config.o(.text) refers to utilities.o(.text) for read_cmd
    sys_config.o(.text) refers to strncmp.o(.text) for strncmp
    sys_config.o(.text) refers to atoi.o(.text) for atoi
    sys_config.o(.text) refers to atof.o(i.__hardfp_atof) for __hardfp_atof
    sys_config.o(.text) refers to d2f.o(.text) for __aeabi_d2f
    sys_config.o(.text) refers to algbloc.o(.text) for WriteCnfAdcFloat
    sys_config.o(.text) refers to ethernetif.o(.text) for set_mac_addr_config
    sys_config.o(.text) refers to netconf.o(.text) for set_ipv4_config
    sys_config.o(.text) refers to usart1.o(.text) for set_rs485_config_v1
    sys_config.o(.text) refers to usart2.o(.text) for set_rs485_config_v2
    sys_config.o(.text) refers to usart3.o(.text) for set_rs485_config_v3
    sys_config.o(.text) refers to udp_server.o(.text) for SetDestPort
    algbloc.o(.text) refers to queue.o(.text) for xQueueGenericReceive
    algbloc.o(.text) refers to heap_4.o(.text) for pvPortMalloc
    algbloc.o(.text) refers to tasks.o(.text) for vTaskDelete
    algbloc.o(.text) refers to ff.o(.text) for f_mount
    algbloc.o(.text) refers to main.o(.data) for xMutex_ALGBLOC_RW_DataVar_Buf
    algbloc.o(.text) refers to algbloc.o(.bss) for .bss
    algbloc.o(.text) refers to algbloc.o(.data) for .data
    algbloc.o(.text) refers to memcpya.o(.text) for __aeabi_memcpy
    algbloc.o(.text) refers to udp_server.o(.text) for UDP_send
    udp_server.o(.text) refers to algbloc.o(.text) for write_mc_value_to_buf
    udp_server.o(.text) refers to queue.o(.text) for xQueueCreateMutex
    udp_server.o(.text) refers to heap_4.o(.text) for pvPortMalloc
    udp_server.o(.text) refers to tasks.o(.text) for vTaskDelete
    udp_server.o(.text) refers to udp.o(.text) for udp_new
    udp_server.o(.text) refers to api_lib.o(.text) for netconn_new_with_proto_and_callback
    udp_server.o(.text) refers to netbuf.o(.text) for netbuf_data
    udp_server.o(.text) refers to pbuf.o(.text) for pbuf_alloc
    udp_server.o(.text) refers to memcpya.o(.text) for __aeabi_memcpy
    udp_server.o(.text) refers to udp_server.o(.data) for .data
    udp_server.o(.text) refers to ip_addr.o(.constdata) for ip_addr_any
    udp_server.o(.text) refers to udp_server.o(.bss) for .bss
    ftp_server.o(.text) refers to strstr.o(.text) for strstr
    ftp_server.o(.text) refers to api_lib.o(.text) for netconn_write_partly
    ftp_server.o(.text) refers to ff.o(.text) for f_mount
    ftp_server.o(.text) refers to strlen.o(.text) for strlen
    ftp_server.o(.text) refers to strncat.o(.text) for strncat
    ftp_server.o(.text) refers to utilities.o(.text) for netconn_rcv_req
    ftp_server.o(.text) refers to tasks.o(.text) for vTaskDelay
    ftp_server.o(.text) refers to netbuf.o(.text) for netbuf_delete
    ftp_server.o(.text) refers to heap_4.o(.text) for pvPortMalloc
    ftp_server.o(.text) refers to strcat.o(.text) for strcat
    ftp_server.o(.text) refers to strncmp.o(.text) for strncmp
    ftp_server.o(.text) refers to ftp_server.o(.data) for .data
    ftp_server.o(.text) refers to strchr.o(.text) for strchr
    ftp_server.o(.text) refers to strtoul.o(.text) for strtoul
    usart1.o(.text) refers to stm32f4xx_gpio.o(.text) for GPIO_SetBits
    usart1.o(.text) refers to queue.o(.text) for xQueueGenericReceive
    usart1.o(.text) refers to stm32f4xx_dma.o(.text) for DMA_DeInit
    usart1.o(.text) refers to stm32f4xx_usart.o(.text) for USART_ClearFlag
    usart1.o(.text) refers to stm32f4xx_rcc.o(.text) for RCC_AHB1PeriphClockCmd
    usart1.o(.text) refers to modbus.o(.text) for Create_mb_packet
    usart1.o(.text) refers to tasks.o(.text) for vTaskDelay
    usart1.o(.text) refers to algbloc.o(.text) for write_mc_value
    usart1.o(.text) refers to main.o(.data) for xMutex_USART1_USART3_DmaSend
    usart1.o(.text) refers to algbloc.o(.data) for xBinarySemaphoreUSART1sendAD_DD
    usart1.o(.text) refers to usart1.o(.bss) for .bss
    usart2.o(.text) refers to stm32f4xx_gpio.o(.text) for GPIO_SetBits
    usart2.o(.text) refers to stm32f4xx_dma.o(.text) for DMA_DeInit
    usart2.o(.text) refers to stm32f4xx_usart.o(.text) for USART_ClearFlag
    usart2.o(.text) refers to stm32f4xx_rcc.o(.text) for RCC_AHB1PeriphClockCmd
    usart2.o(.text) refers to queue.o(.text) for xQueueGenericCreate
    usart2.o(.text) refers to modbus.o(.text) for Create_mb_packet
    usart2.o(.text) refers to tasks.o(.text) for vTaskDelay
    usart2.o(.text) refers to algbloc.o(.text) for write_mc_value
    usart2.o(.text) refers to algbloc.o(.data) for xBinarySemaphoreUSART2sendAD_DD
    usart2.o(.text) refers to usart2.o(.bss) for .bss
    usart3.o(.text) refers to stm32f4xx_gpio.o(.text) for GPIO_SetBits
    usart3.o(.text) refers to queue.o(.text) for xQueueGenericReceive
    usart3.o(.text) refers to stm32f4xx_dma.o(.text) for DMA_DeInit
    usart3.o(.text) refers to stm32f4xx_usart.o(.text) for USART_ClearFlag
    usart3.o(.text) refers to modbus.o(.text) for Create_mb_packet
    usart3.o(.text) refers to tasks.o(.text) for vTaskDelay
    usart3.o(.text) refers to algbloc.o(.text) for write_mc_value
    usart3.o(.text) refers to main.o(.data) for xMutex_USART1_USART3_DmaSend
    usart3.o(.text) refers to algbloc.o(.data) for xBinarySemaphoreUSART3sendAD_DD
    usart3.o(.text) refers to usart3.o(.bss) for .bss
    usart3.o(.text) refers to stm32f4xx_rcc.o(.text) for RCC_AHB1PeriphClockCmd
    usart3.o(.text) refers to stm32f4xx_tim.o(.text) for TIM_TimeBaseStructInit
    usart4.o(.text) refers to stm32f4xx_gpio.o(.text) for GPIO_SetBits
    usart4.o(.text) refers to stm32f4xx_dma.o(.text) for DMA_DeInit
    usart4.o(.text) refers to misc.o(.text) for NVIC_Init
    usart4.o(.text) refers to stm32f4xx_usart.o(.text) for USART_ClearFlag
    usart4.o(.text) refers to tasks.o(.text) for vTaskDelay
    usart4.o(.text) refers to algbloc.o(.text) for get_mc_DO_byte_from_buf
    usart4.o(.text) refers to modbus.o(.text) for Create_mb_packet
    usart4.o(.text) refers to queue.o(.text) for xQueueGenericSend
    usart4.o(.text) refers to stm32f4xx_rcc.o(.text) for RCC_AHB1PeriphClockCmd
    usart4.o(.text) refers to usart4.o(.bss) for .bss
    usart4.o(.text) refers to algbloc.o(.data) for xBinarySemaphoreUSART4StartALG
    utilities.o(.text) refers to api_lib.o(.text) for netconn_recv
    utilities.o(.text) refers to memcpya.o(.text) for __aeabi_memcpy
    utilities.o(.text) refers to netbuf.o(.text) for netbuf_delete
    utilities.o(.text) refers to strlen.o(.text) for strlen
    utilities.o(.text) refers to atoi.o(.text) for atoi
    utilities.o(.text) refers to strtol.o(.text) for strtol
    atof.o(i.__hardfp_atof) refers (Special) to iusefp.o(.text) for __I$use$fp
    atof.o(i.__hardfp_atof) refers to errno.o(i.__read_errno) for __read_errno
    atof.o(i.__hardfp_atof) refers to strtod.o(.text) for __strtod_int
    atof.o(i.__hardfp_atof) refers to errno.o(i.__set_errno) for __set_errno
    atof.o(i.__softfp_atof) refers (Special) to iusefp.o(.text) for __I$use$fp
    atof.o(i.__softfp_atof) refers to errno.o(i.__read_errno) for __read_errno
    atof.o(i.__softfp_atof) refers to strtod.o(.text) for __strtod_int
    atof.o(i.__softfp_atof) refers to errno.o(i.__set_errno) for __set_errno
    atof.o(i.atof) refers (Special) to iusefp.o(.text) for __I$use$fp
    atof.o(i.atof) refers to errno.o(i.__read_errno) for __read_errno
    atof.o(i.atof) refers to strtod.o(.text) for __strtod_int
    atof.o(i.atof) refers to errno.o(i.__set_errno) for __set_errno
    entry.o(.ARM.Collect$$$$00000000) refers (Special) to entry10a.o(.ARM.Collect$$$$0000000D) for __rt_final_cpp
    entry.o(.ARM.Collect$$$$00000000) refers (Special) to entry11a.o(.ARM.Collect$$$$0000000F) for __rt_final_exit
    entry.o(.ARM.Collect$$$$00000000) refers (Special) to entry7b.o(.ARM.Collect$$$$00000008) for _main_clock
    entry.o(.ARM.Collect$$$$00000000) refers (Special) to entry8b.o(.ARM.Collect$$$$0000000A) for _main_cpp_init
    entry.o(.ARM.Collect$$$$00000000) refers (Special) to entry9a.o(.ARM.Collect$$$$0000000B) for _main_init
    entry.o(.ARM.Collect$$$$00000000) refers (Special) to entry5.o(.ARM.Collect$$$$00000004) for _main_scatterload
    entry.o(.ARM.Collect$$$$00000000) refers (Special) to entry2.o(.ARM.Collect$$$$00000001) for _main_stk
    printfb.o(i.__0fprintf$bare) refers to printfb.o(i._printf_core) for _printf_core
    printfb.o(i.__0fprintf$bare) refers to fputc.o(i.fputc) for fputc
    printfb.o(i.__0printf$bare) refers to printfb.o(i._printf_core) for _printf_core
    printfb.o(i.__0printf$bare) refers to fputc.o(i.fputc) for fputc
    printfb.o(i.__0printf$bare) refers to stdout.o(.data) for __stdout
    printfb.o(i.__0snprintf$bare) refers to printfb.o(i._printf_core) for _printf_core
    printfb.o(i.__0snprintf$bare) refers to printfb.o(i._snputc) for _snputc
    printfb.o(i.__0sprintf$bare) refers to printfb.o(i._printf_core) for _printf_core
    printfb.o(i.__0sprintf$bare) refers to printfb.o(i._sputc) for _sputc
    printfb.o(i.__0vfprintf$bare) refers to printfb.o(i._printf_core) for _printf_core
    printfb.o(i.__0vfprintf$bare) refers to fputc.o(i.fputc) for fputc
    printfb.o(i.__0vprintf$bare) refers to printfb.o(i._printf_core) for _printf_core
    printfb.o(i.__0vprintf$bare) refers to fputc.o(i.fputc) for fputc
    printfb.o(i.__0vprintf$bare) refers to stdout.o(.data) for __stdout
    printfb.o(i.__0vsnprintf$bare) refers to printfb.o(i._printf_core) for _printf_core
    printfb.o(i.__0vsnprintf$bare) refers to printfb.o(i._snputc) for _snputc
    printfb.o(i.__0vsprintf$bare) refers to printfb.o(i._printf_core) for _printf_core
    printfb.o(i.__0vsprintf$bare) refers to printfb.o(i._sputc) for _sputc
    printf0.o(i.__0fprintf$0) refers to printf0.o(i._printf_core) for _printf_core
    printf0.o(i.__0fprintf$0) refers to fputc.o(i.fputc) for fputc
    printf0.o(i.__0printf$0) refers to printf0.o(i._printf_core) for _printf_core
    printf0.o(i.__0printf$0) refers to fputc.o(i.fputc) for fputc
    printf0.o(i.__0printf$0) refers to stdout.o(.data) for __stdout
    printf0.o(i.__0snprintf$0) refers to printf0.o(i._printf_core) for _printf_core
    printf0.o(i.__0snprintf$0) refers to printf0.o(i._snputc) for _snputc
    printf0.o(i.__0sprintf$0) refers to printf0.o(i._printf_core) for _printf_core
    printf0.o(i.__0sprintf$0) refers to printf0.o(i._sputc) for _sputc
    printf0.o(i.__0vfprintf$0) refers to printf0.o(i._printf_core) for _printf_core
    printf0.o(i.__0vfprintf$0) refers to fputc.o(i.fputc) for fputc
    printf0.o(i.__0vprintf$0) refers to printf0.o(i._printf_core) for _printf_core
    printf0.o(i.__0vprintf$0) refers to fputc.o(i.fputc) for fputc
    printf0.o(i.__0vprintf$0) refers to stdout.o(.data) for __stdout
    printf0.o(i.__0vsnprintf$0) refers to printf0.o(i._printf_core) for _printf_core
    printf0.o(i.__0vsnprintf$0) refers to printf0.o(i._snputc) for _snputc
    printf0.o(i.__0vsprintf$0) refers to printf0.o(i._printf_core) for _printf_core
    printf0.o(i.__0vsprintf$0) refers to printf0.o(i._sputc) for _sputc
    printf1.o(i.__0fprintf$1) refers to printf1.o(i._printf_core) for _printf_core
    printf1.o(i.__0fprintf$1) refers to fputc.o(i.fputc) for fputc
    printf1.o(i.__0printf$1) refers to printf1.o(i._printf_core) for _printf_core
    printf1.o(i.__0printf$1) refers to fputc.o(i.fputc) for fputc
    printf1.o(i.__0printf$1) refers to stdout.o(.data) for __stdout
    printf1.o(i.__0snprintf$1) refers to printf1.o(i._printf_core) for _printf_core
    printf1.o(i.__0snprintf$1) refers to printf1.o(i._snputc) for _snputc
    printf1.o(i.__0sprintf$1) refers to printf1.o(i._printf_core) for _printf_core
    printf1.o(i.__0sprintf$1) refers to printf1.o(i._sputc) for _sputc
    printf1.o(i.__0vfprintf$1) refers to printf1.o(i._printf_core) for _printf_core
    printf1.o(i.__0vfprintf$1) refers to fputc.o(i.fputc) for fputc
    printf1.o(i.__0vprintf$1) refers to printf1.o(i._printf_core) for _printf_core
    printf1.o(i.__0vprintf$1) refers to fputc.o(i.fputc) for fputc
    printf1.o(i.__0vprintf$1) refers to stdout.o(.data) for __stdout
    printf1.o(i.__0vsnprintf$1) refers to printf1.o(i._printf_core) for _printf_core
    printf1.o(i.__0vsnprintf$1) refers to printf1.o(i._snputc) for _snputc
    printf1.o(i.__0vsprintf$1) refers to printf1.o(i._printf_core) for _printf_core
    printf1.o(i.__0vsprintf$1) refers to printf1.o(i._sputc) for _sputc
    printf1.o(i._printf_core) refers to uidiv.o(.text) for __aeabi_uidivmod
    printf2.o(i.__0fprintf$2) refers to printf2.o(i._printf_core) for _printf_core
    printf2.o(i.__0fprintf$2) refers to fputc.o(i.fputc) for fputc
    printf2.o(i.__0printf$2) refers to printf2.o(i._printf_core) for _printf_core
    printf2.o(i.__0printf$2) refers to fputc.o(i.fputc) for fputc
    printf2.o(i.__0printf$2) refers to stdout.o(.data) for __stdout
    printf2.o(i.__0snprintf$2) refers to printf2.o(i._printf_core) for _printf_core
    printf2.o(i.__0snprintf$2) refers to printf2.o(i._snputc) for _snputc
    printf2.o(i.__0sprintf$2) refers to printf2.o(i._printf_core) for _printf_core
    printf2.o(i.__0sprintf$2) refers to printf2.o(i._sputc) for _sputc
    printf2.o(i.__0vfprintf$2) refers to printf2.o(i._printf_core) for _printf_core
    printf2.o(i.__0vfprintf$2) refers to fputc.o(i.fputc) for fputc
    printf2.o(i.__0vprintf$2) refers to printf2.o(i._printf_core) for _printf_core
    printf2.o(i.__0vprintf$2) refers to fputc.o(i.fputc) for fputc
    printf2.o(i.__0vprintf$2) refers to stdout.o(.data) for __stdout
    printf2.o(i.__0vsnprintf$2) refers to printf2.o(i._printf_core) for _printf_core
    printf2.o(i.__0vsnprintf$2) refers to printf2.o(i._snputc) for _snputc
    printf2.o(i.__0vsprintf$2) refers to printf2.o(i._printf_core) for _printf_core
    printf2.o(i.__0vsprintf$2) refers to printf2.o(i._sputc) for _sputc
    printf3.o(i.__0fprintf$3) refers to printf3.o(i._printf_core) for _printf_core
    printf3.o(i.__0fprintf$3) refers to fputc.o(i.fputc) for fputc
    printf3.o(i.__0printf$3) refers to printf3.o(i._printf_core) for _printf_core
    printf3.o(i.__0printf$3) refers to fputc.o(i.fputc) for fputc
    printf3.o(i.__0printf$3) refers to stdout.o(.data) for __stdout
    printf3.o(i.__0snprintf$3) refers to printf3.o(i._printf_core) for _printf_core
    printf3.o(i.__0snprintf$3) refers to printf3.o(i._snputc) for _snputc
    printf3.o(i.__0sprintf$3) refers to printf3.o(i._printf_core) for _printf_core
    printf3.o(i.__0sprintf$3) refers to printf3.o(i._sputc) for _sputc
    printf3.o(i.__0vfprintf$3) refers to printf3.o(i._printf_core) for _printf_core
    printf3.o(i.__0vfprintf$3) refers to fputc.o(i.fputc) for fputc
    printf3.o(i.__0vprintf$3) refers to printf3.o(i._printf_core) for _printf_core
    printf3.o(i.__0vprintf$3) refers to fputc.o(i.fputc) for fputc
    printf3.o(i.__0vprintf$3) refers to stdout.o(.data) for __stdout
    printf3.o(i.__0vsnprintf$3) refers to printf3.o(i._printf_core) for _printf_core
    printf3.o(i.__0vsnprintf$3) refers to printf3.o(i._snputc) for _snputc
    printf3.o(i.__0vsprintf$3) refers to printf3.o(i._printf_core) for _printf_core
    printf3.o(i.__0vsprintf$3) refers to printf3.o(i._sputc) for _sputc
    printf3.o(i._printf_core) refers to uidiv.o(.text) for __aeabi_uidivmod
    printf4.o(i.__0fprintf$4) refers to printf4.o(i._printf_core) for _printf_core
    printf4.o(i.__0fprintf$4) refers to fputc.o(i.fputc) for fputc
    printf4.o(i.__0printf$4) refers to printf4.o(i._printf_core) for _printf_core
    printf4.o(i.__0printf$4) refers to fputc.o(i.fputc) for fputc
    printf4.o(i.__0printf$4) refers to stdout.o(.data) for __stdout
    printf4.o(i.__0snprintf$4) refers to printf4.o(i._printf_core) for _printf_core
    printf4.o(i.__0snprintf$4) refers to printf4.o(i._snputc) for _snputc
    printf4.o(i.__0sprintf$4) refers to printf4.o(i._printf_core) for _printf_core
    printf4.o(i.__0sprintf$4) refers to printf4.o(i._sputc) for _sputc
    printf4.o(i.__0vfprintf$4) refers to printf4.o(i._printf_core) for _printf_core
    printf4.o(i.__0vfprintf$4) refers to fputc.o(i.fputc) for fputc
    printf4.o(i.__0vprintf$4) refers to printf4.o(i._printf_core) for _printf_core
    printf4.o(i.__0vprintf$4) refers to fputc.o(i.fputc) for fputc
    printf4.o(i.__0vprintf$4) refers to stdout.o(.data) for __stdout
    printf4.o(i.__0vsnprintf$4) refers to printf4.o(i._printf_core) for _printf_core
    printf4.o(i.__0vsnprintf$4) refers to printf4.o(i._snputc) for _snputc
    printf4.o(i.__0vsprintf$4) refers to printf4.o(i._printf_core) for _printf_core
    printf4.o(i.__0vsprintf$4) refers to printf4.o(i._sputc) for _sputc
    printf4.o(i._printf_core) refers to uldiv.o(.text) for __aeabi_uldivmod
    printf5.o(i.__0fprintf$5) refers to printf5.o(i._printf_core) for _printf_core
    printf5.o(i.__0fprintf$5) refers to fputc.o(i.fputc) for fputc
    printf5.o(i.__0printf$5) refers to printf5.o(i._printf_core) for _printf_core
    printf5.o(i.__0printf$5) refers to fputc.o(i.fputc) for fputc
    printf5.o(i.__0printf$5) refers to stdout.o(.data) for __stdout
    printf5.o(i.__0snprintf$5) refers to printf5.o(i._printf_core) for _printf_core
    printf5.o(i.__0snprintf$5) refers to printf5.o(i._snputc) for _snputc
    printf5.o(i.__0sprintf$5) refers to printf5.o(i._printf_core) for _printf_core
    printf5.o(i.__0sprintf$5) refers to printf5.o(i._sputc) for _sputc
    printf5.o(i.__0vfprintf$5) refers to printf5.o(i._printf_core) for _printf_core
    printf5.o(i.__0vfprintf$5) refers to fputc.o(i.fputc) for fputc
    printf5.o(i.__0vprintf$5) refers to printf5.o(i._printf_core) for _printf_core
    printf5.o(i.__0vprintf$5) refers to fputc.o(i.fputc) for fputc
    printf5.o(i.__0vprintf$5) refers to stdout.o(.data) for __stdout
    printf5.o(i.__0vsnprintf$5) refers to printf5.o(i._printf_core) for _printf_core
    printf5.o(i.__0vsnprintf$5) refers to printf5.o(i._snputc) for _snputc
    printf5.o(i.__0vsprintf$5) refers to printf5.o(i._printf_core) for _printf_core
    printf5.o(i.__0vsprintf$5) refers to printf5.o(i._sputc) for _sputc
    printf5.o(i._printf_core) refers to uldiv.o(.text) for __aeabi_uldivmod
    printf6.o(i.__0fprintf$6) refers to printf6.o(i._printf_core) for _printf_core
    printf6.o(i.__0fprintf$6) refers to fputc.o(i.fputc) for fputc
    printf6.o(i.__0printf$6) refers to printf6.o(i._printf_core) for _printf_core
    printf6.o(i.__0printf$6) refers to fputc.o(i.fputc) for fputc
    printf6.o(i.__0printf$6) refers to stdout.o(.data) for __stdout
    printf6.o(i.__0snprintf$6) refers to printf6.o(i._printf_core) for _printf_core
    printf6.o(i.__0snprintf$6) refers to printf6.o(i._snputc) for _snputc
    printf6.o(i.__0sprintf$6) refers to printf6.o(i._printf_core) for _printf_core
    printf6.o(i.__0sprintf$6) refers to printf6.o(i._sputc) for _sputc
    printf6.o(i.__0vfprintf$6) refers to printf6.o(i._printf_core) for _printf_core
    printf6.o(i.__0vfprintf$6) refers to fputc.o(i.fputc) for fputc
    printf6.o(i.__0vprintf$6) refers to printf6.o(i._printf_core) for _printf_core
    printf6.o(i.__0vprintf$6) refers to fputc.o(i.fputc) for fputc
    printf6.o(i.__0vprintf$6) refers to stdout.o(.data) for __stdout
    printf6.o(i.__0vsnprintf$6) refers to printf6.o(i._printf_core) for _printf_core
    printf6.o(i.__0vsnprintf$6) refers to printf6.o(i._snputc) for _snputc
    printf6.o(i.__0vsprintf$6) refers to printf6.o(i._printf_core) for _printf_core
    printf6.o(i.__0vsprintf$6) refers to printf6.o(i._sputc) for _sputc
    printf6.o(i._printf_core) refers to printf6.o(i._printf_pre_padding) for _printf_pre_padding
    printf6.o(i._printf_core) refers to uidiv.o(.text) for __aeabi_uidivmod
    printf6.o(i._printf_core) refers to printf6.o(i._printf_post_padding) for _printf_post_padding
    printf7.o(i.__0fprintf$7) refers to printf7.o(i._printf_core) for _printf_core
    printf7.o(i.__0fprintf$7) refers to fputc.o(i.fputc) for fputc
    printf7.o(i.__0printf$7) refers to printf7.o(i._printf_core) for _printf_core
    printf7.o(i.__0printf$7) refers to fputc.o(i.fputc) for fputc
    printf7.o(i.__0printf$7) refers to stdout.o(.data) for __stdout
    printf7.o(i.__0snprintf$7) refers to printf7.o(i._printf_core) for _printf_core
    printf7.o(i.__0snprintf$7) refers to printf7.o(i._snputc) for _snputc
    printf7.o(i.__0sprintf$7) refers to printf7.o(i._printf_core) for _printf_core
    printf7.o(i.__0sprintf$7) refers to printf7.o(i._sputc) for _sputc
    printf7.o(i.__0vfprintf$7) refers to printf7.o(i._printf_core) for _printf_core
    printf7.o(i.__0vfprintf$7) refers to fputc.o(i.fputc) for fputc
    printf7.o(i.__0vprintf$7) refers to printf7.o(i._printf_core) for _printf_core
    printf7.o(i.__0vprintf$7) refers to fputc.o(i.fputc) for fputc
    printf7.o(i.__0vprintf$7) refers to stdout.o(.data) for __stdout
    printf7.o(i.__0vsnprintf$7) refers to printf7.o(i._printf_core) for _printf_core
    printf7.o(i.__0vsnprintf$7) refers to printf7.o(i._snputc) for _snputc
    printf7.o(i.__0vsprintf$7) refers to printf7.o(i._printf_core) for _printf_core
    printf7.o(i.__0vsprintf$7) refers to printf7.o(i._sputc) for _sputc
    printf7.o(i._printf_core) refers to printf7.o(i._printf_pre_padding) for _printf_pre_padding
    printf7.o(i._printf_core) refers to uldiv.o(.text) for __aeabi_uldivmod
    printf7.o(i._printf_core) refers to printf7.o(i._printf_post_padding) for _printf_post_padding
    printf8.o(i.__0fprintf$8) refers to printf8.o(i._printf_core) for _printf_core
    printf8.o(i.__0fprintf$8) refers to fputc.o(i.fputc) for fputc
    printf8.o(i.__0printf$8) refers to printf8.o(i._printf_core) for _printf_core
    printf8.o(i.__0printf$8) refers to fputc.o(i.fputc) for fputc
    printf8.o(i.__0printf$8) refers to stdout.o(.data) for __stdout
    printf8.o(i.__0snprintf$8) refers to printf8.o(i._printf_core) for _printf_core
    printf8.o(i.__0snprintf$8) refers to printf8.o(i._snputc) for _snputc
    printf8.o(i.__0sprintf$8) refers to printf8.o(i._printf_core) for _printf_core
    printf8.o(i.__0sprintf$8) refers to printf8.o(i._sputc) for _sputc
    printf8.o(i.__0vfprintf$8) refers to printf8.o(i._printf_core) for _printf_core
    printf8.o(i.__0vfprintf$8) refers to fputc.o(i.fputc) for fputc
    printf8.o(i.__0vprintf$8) refers to printf8.o(i._printf_core) for _printf_core
    printf8.o(i.__0vprintf$8) refers to fputc.o(i.fputc) for fputc
    printf8.o(i.__0vprintf$8) refers to stdout.o(.data) for __stdout
    printf8.o(i.__0vsnprintf$8) refers to printf8.o(i._printf_core) for _printf_core
    printf8.o(i.__0vsnprintf$8) refers to printf8.o(i._snputc) for _snputc
    printf8.o(i.__0vsprintf$8) refers to printf8.o(i._printf_core) for _printf_core
    printf8.o(i.__0vsprintf$8) refers to printf8.o(i._sputc) for _sputc
    printf8.o(i._printf_core) refers to printf8.o(i._printf_pre_padding) for _printf_pre_padding
    printf8.o(i._printf_core) refers to uldiv.o(.text) for __aeabi_uldivmod
    printf8.o(i._printf_core) refers to printf8.o(i._printf_post_padding) for _printf_post_padding
    printfa.o(i.__0fprintf) refers (Special) to iusefp.o(.text) for __I$use$fp
    printfa.o(i.__0fprintf) refers to printfa.o(i._printf_core) for _printf_core
    printfa.o(i.__0fprintf) refers to fputc.o(i.fputc) for fputc
    printfa.o(i.__0printf) refers (Special) to iusefp.o(.text) for __I$use$fp
    printfa.o(i.__0printf) refers to printfa.o(i._printf_core) for _printf_core
    printfa.o(i.__0printf) refers to fputc.o(i.fputc) for fputc
    printfa.o(i.__0printf) refers to stdout.o(.data) for __stdout
    printfa.o(i.__0snprintf) refers (Special) to iusefp.o(.text) for __I$use$fp
    printfa.o(i.__0snprintf) refers to printfa.o(i._printf_core) for _printf_core
    printfa.o(i.__0snprintf) refers to printfa.o(i._snputc) for _snputc
    printfa.o(i.__0sprintf) refers (Special) to iusefp.o(.text) for __I$use$fp
    printfa.o(i.__0sprintf) refers to printfa.o(i._printf_core) for _printf_core
    printfa.o(i.__0sprintf) refers to printfa.o(i._sputc) for _sputc
    printfa.o(i.__0vfprintf) refers (Special) to iusefp.o(.text) for __I$use$fp
    printfa.o(i.__0vfprintf) refers to printfa.o(i._printf_core) for _printf_core
    printfa.o(i.__0vfprintf) refers to fputc.o(i.fputc) for fputc
    printfa.o(i.__0vprintf) refers (Special) to iusefp.o(.text) for __I$use$fp
    printfa.o(i.__0vprintf) refers to printfa.o(i._printf_core) for _printf_core
    printfa.o(i.__0vprintf) refers to fputc.o(i.fputc) for fputc
    printfa.o(i.__0vprintf) refers to stdout.o(.data) for __stdout
    printfa.o(i.__0vsnprintf) refers (Special) to iusefp.o(.text) for __I$use$fp
    printfa.o(i.__0vsnprintf) refers to printfa.o(i._printf_core) for _printf_core
    printfa.o(i.__0vsnprintf) refers to printfa.o(i._snputc) for _snputc
    printfa.o(i.__0vsprintf) refers (Special) to iusefp.o(.text) for __I$use$fp
    printfa.o(i.__0vsprintf) refers to printfa.o(i._printf_core) for _printf_core
    printfa.o(i.__0vsprintf) refers to printfa.o(i._sputc) for _sputc
    printfa.o(i._fp_digits) refers (Special) to iusefp.o(.text) for __I$use$fp
    printfa.o(i._fp_digits) refers to dmul.o(.text) for __aeabi_dmul
    printfa.o(i._fp_digits) refers to ddiv.o(.text) for __aeabi_ddiv
    printfa.o(i._fp_digits) refers to cdrcmple.o(.text) for __aeabi_cdrcmple
    printfa.o(i._fp_digits) refers to dadd.o(.text) for __aeabi_dadd
    printfa.o(i._fp_digits) refers to dfixul.o(.text) for __aeabi_d2ulz
    printfa.o(i._fp_digits) refers to uldiv.o(.text) for __aeabi_uldivmod
    printfa.o(i._printf_core) refers (Special) to iusefp.o(.text) for __I$use$fp
    printfa.o(i._printf_core) refers to printfa.o(i._printf_pre_padding) for _printf_pre_padding
    printfa.o(i._printf_core) refers to uldiv.o(.text) for __aeabi_uldivmod
    printfa.o(i._printf_core) refers to printfa.o(i._printf_post_padding) for _printf_post_padding
    printfa.o(i._printf_core) refers to printfa.o(i._fp_digits) for _fp_digits
    printfa.o(i._printf_core) refers to uidiv.o(.text) for __aeabi_uidivmod
    printfa.o(i._printf_post_padding) refers (Special) to iusefp.o(.text) for __I$use$fp
    printfa.o(i._printf_pre_padding) refers (Special) to iusefp.o(.text) for __I$use$fp
    printfa.o(i._snputc) refers (Special) to iusefp.o(.text) for __I$use$fp
    printfa.o(i._sputc) refers (Special) to iusefp.o(.text) for __I$use$fp
    strtol.o(.text) refers to ctype_o.o(.text) for __rt_ctype_table
    strtol.o(.text) refers to _strtoul.o(.text) for _strtoul
    strtol.o(.text) refers to errno.o(i.__aeabi_errno_addr) for __aeabi_errno_addr
    strtoul.o(.text) refers to errno.o(i.__aeabi_errno_addr) for __aeabi_errno_addr
    strtoul.o(.text) refers to ctype_o.o(.text) for __rt_ctype_table
    strtoul.o(.text) refers to _strtoul.o(.text) for _strtoul
    atoi.o(.text) refers to errno.o(i.__aeabi_errno_addr) for __aeabi_errno_addr
    atoi.o(.text) refers to strtol.o(.text) for strtol
    d2f.o(.text) refers (Special) to iusefp.o(.text) for __I$use$fp
    d2f.o(.text) refers to fepilogue.o(.text) for _float_round
    entry2.o(.ARM.Collect$$$$00000001) refers to entry2.o(.ARM.Collect$$$$00002712) for __lit__00000000
    entry2.o(.ARM.Collect$$$$00002712) refers to startup_stm32f427x.o(STACK) for __initial_sp
    entry2.o(__vectab_stack_and_reset_area) refers to startup_stm32f427x.o(STACK) for __initial_sp
    entry2.o(__vectab_stack_and_reset_area) refers to entry.o(.ARM.Collect$$$$00000000) for __main
    entry5.o(.ARM.Collect$$$$00000004) refers to init.o(.text) for __scatterload
    entry9a.o(.ARM.Collect$$$$0000000B) refers to main.o(.text) for main
    entry9b.o(.ARM.Collect$$$$0000000C) refers to main.o(.text) for main
    fputc.o(i.fputc) refers (Special) to iusesemip.o(.text) for __I$use$semihosting$fputc
    fputc.o(i.fputc) refers (Special) to semi.o(.text) for __semihosting_library_function
    uldiv.o(.text) refers to llushr.o(.text) for __aeabi_llsr
    uldiv.o(.text) refers to llshl.o(.text) for __aeabi_llsl
    ctype_o.o(.text) refers to ctype_o.o(.constdata) for .constdata
    ctype_o.o(.constdata) refers to ctype_o.o(.constdata) for __ctype_table
    isalnum_o.o(.text) refers to ctype_o.o(.text) for __rt_ctype_table
    isalpha_o.o(.text) refers to ctype_o.o(.text) for __rt_ctype_table
    isblank_o.o(.text) refers to ctype_o.o(.constdata) for __ctype_table
    iscntrl_o.o(.text) refers to ctype_o.o(.text) for __rt_ctype_table
    isdigit_o.o(.text) refers to ctype_o.o(.text) for __rt_ctype_table
    isgraph_o.o(.text) refers to ctype_o.o(.text) for __rt_ctype_table
    islower_o.o(.text) refers to ctype_o.o(.text) for __rt_ctype_table
    isprint_o.o(.text) refers to ctype_o.o(.text) for __rt_ctype_table
    ispunct_o.o(.text) refers to ctype_o.o(.text) for __rt_ctype_table
    isspace_o.o(.text) refers to ctype_o.o(.text) for __rt_ctype_table
    isupper_o.o(.text) refers to ctype_o.o(.text) for __rt_ctype_table
    isxdigit_o.o(.text) refers to ctype_o.o(.text) for __rt_ctype_table
    errno.o(i.__aeabi_errno_addr) refers to errno.o(.data) for .data
    errno.o(i.__read_errno) refers to errno.o(.data) for .data
    errno.o(i.__set_errno) refers to errno.o(.data) for .data
    _strtoul.o(.text) refers to _chval.o(.text) for _chval
    _strtoul.o(.text) refers to errno.o(i.__aeabi_errno_addr) for __aeabi_errno_addr
    strtod.o(.text) refers to scanf_fp.o(.text) for _scanf_real
    strtod.o(.text) refers to _sgetc.o(.text) for _sgetc
    strtod.o(.text) refers to isspace_o.o(.text) for isspace
    dadd.o(.text) refers to llshl.o(.text) for __aeabi_llsl
    dadd.o(.text) refers to llsshr.o(.text) for __aeabi_lasr
    dadd.o(.text) refers to depilogue.o(.text) for _double_epilogue
    dmul.o(.text) refers to depilogue.o(.text) for _double_epilogue
    ddiv.o(.text) refers to depilogue.o(.text) for _double_round
    dfixul.o(.text) refers to llushr.o(.text) for __aeabi_llsr
    dfixul.o(.text) refers to llshl.o(.text) for __aeabi_llsl
    init.o(.text) refers to entry5.o(.ARM.Collect$$$$00000004) for __main_after_scatterload
    isspace_c.o(.text) refers to ctype_c.o(.text) for __ctype_lookup
    scanf_fp.o(.text) refers (Special) to iusefp.o(.text) for __I$use$fp
    scanf_fp.o(.text) refers to dfltul.o(.text) for __aeabi_ul2d
    scanf_fp.o(.text) refers to dmul.o(.text) for __aeabi_dmul
    scanf_fp.o(.text) refers to ddiv.o(.text) for __aeabi_ddiv
    scanf_fp.o(.text) refers to scanf_fp.o(i._is_digit) for _is_digit
    scanf_fp.o(.text) refers to d2f.o(.text) for __aeabi_d2f
    depilogue.o(.text) refers to llshl.o(.text) for __aeabi_llsl
    depilogue.o(.text) refers to llushr.o(.text) for __aeabi_llsr
    ctype_c.o(.text) refers to ctype_c.o(.constdata) for .constdata
    dfltul.o(.text) refers to depilogue.o(.text) for _double_epilogue
    scanf_fp.o(i._is_digit) refers (Special) to iusefp.o(.text) for __I$use$fp


==============================================================================

Removing Unused input sections from the image.

    Removing system_stm32f4xx.o(.rev16_text), (4 bytes).
    Removing system_stm32f4xx.o(.revsh_text), (4 bytes).
    Removing startup_stm32f427x.o(HEAP), (2048 bytes).
    Removing err.o(.text), (16 bytes).
    Removing err.o(.conststring), (295 bytes).
    Removing err.o(.data), (64 bytes).
    Removing memp.o(.conststring), (134 bytes).
    Removing memp.o(.data), (48 bytes).
    Removing sys.o(.text), (34 bytes).
    Removing ethernetif.o(.rev16_text), (4 bytes).
    Removing ethernetif.o(.revsh_text), (4 bytes).
    Removing misc.o(.rev16_text), (4 bytes).
    Removing misc.o(.revsh_text), (4 bytes).
    Removing stm32f4xx_dma.o(.rev16_text), (4 bytes).
    Removing stm32f4xx_dma.o(.revsh_text), (4 bytes).
    Removing stm32f4xx_exti.o(.rev16_text), (4 bytes).
    Removing stm32f4xx_exti.o(.revsh_text), (4 bytes).
    Removing stm32f4xx_flash.o(.rev16_text), (4 bytes).
    Removing stm32f4xx_flash.o(.revsh_text), (4 bytes).
    Removing stm32f4xx_flash.o(.text), (952 bytes).
    Removing stm32f4xx_fmc.o(.rev16_text), (4 bytes).
    Removing stm32f4xx_fmc.o(.revsh_text), (4 bytes).
    Removing stm32f4xx_gpio.o(.rev16_text), (4 bytes).
    Removing stm32f4xx_gpio.o(.revsh_text), (4 bytes).
    Removing stm32f4xx_rcc.o(.rev16_text), (4 bytes).
    Removing stm32f4xx_rcc.o(.revsh_text), (4 bytes).
    Removing stm32f4xx_sdio.o(.rev16_text), (4 bytes).
    Removing stm32f4xx_sdio.o(.revsh_text), (4 bytes).
    Removing stm32f4xx_syscfg.o(.rev16_text), (4 bytes).
    Removing stm32f4xx_syscfg.o(.revsh_text), (4 bytes).
    Removing stm32f4xx_usart.o(.rev16_text), (4 bytes).
    Removing stm32f4xx_usart.o(.revsh_text), (4 bytes).
    Removing stm32f4xx_rtc.o(.rev16_text), (4 bytes).
    Removing stm32f4xx_rtc.o(.revsh_text), (4 bytes).
    Removing stm32f4xx_tim.o(.rev16_text), (4 bytes).
    Removing stm32f4xx_tim.o(.revsh_text), (4 bytes).
    Removing stm32f4x7_eth.o(.rev16_text), (4 bytes).
    Removing stm32f4x7_eth.o(.revsh_text), (4 bytes).
    Removing stm32f4x7_eth.o(.data), (4 bytes).
    Removing croutine.o(.text), (548 bytes).
    Removing croutine.o(.bss), (100 bytes).
    Removing croutine.o(.data), (28 bytes).
    Removing sdio_sd.o(.rev16_text), (4 bytes).
    Removing sdio_sd.o(.revsh_text), (4 bytes).
    Removing ff.o(.rev16_text), (4 bytes).
    Removing ff.o(.revsh_text), (4 bytes).
    Removing fattime.o(.rev16_text), (4 bytes).
    Removing fattime.o(.revsh_text), (4 bytes).
    Removing diskio.o(.rev16_text), (4 bytes).
    Removing diskio.o(.revsh_text), (4 bytes).
    Removing main.o(.rev16_text), (4 bytes).
    Removing main.o(.revsh_text), (4 bytes).
    Removing stm32f4xx_it.o(.rev16_text), (4 bytes).
    Removing stm32f4xx_it.o(.revsh_text), (4 bytes).
    Removing stm32f4x7_eth_bsp.o(.rev16_text), (4 bytes).
    Removing stm32f4x7_eth_bsp.o(.revsh_text), (4 bytes).
    Removing netconf.o(.rev16_text), (4 bytes).
    Removing netconf.o(.revsh_text), (4 bytes).
    Removing sys_config.o(.rev16_text), (4 bytes).
    Removing sys_config.o(.revsh_text), (4 bytes).
    Removing algbloc.o(.rev16_text), (4 bytes).
    Removing algbloc.o(.revsh_text), (4 bytes).
    Removing algbloc.o(.bss), (512 bytes).
    Removing algbloc.o(.bss), (512 bytes).
    Removing udp_server.o(.rev16_text), (4 bytes).
    Removing udp_server.o(.revsh_text), (4 bytes).
    Removing ftp_server.o(.rev16_text), (4 bytes).
    Removing ftp_server.o(.revsh_text), (4 bytes).
    Removing usart1.o(.rev16_text), (4 bytes).
    Removing usart1.o(.revsh_text), (4 bytes).
    Removing usart2.o(.rev16_text), (4 bytes).
    Removing usart2.o(.revsh_text), (4 bytes).
    Removing usart3.o(.rev16_text), (4 bytes).
    Removing usart3.o(.revsh_text), (4 bytes).
    Removing usart4.o(.rev16_text), (4 bytes).
    Removing usart4.o(.revsh_text), (4 bytes).
    Removing modbus.o(.rev16_text), (4 bytes).
    Removing modbus.o(.revsh_text), (4 bytes).
    Removing utilities.o(.rev16_text), (4 bytes).
    Removing utilities.o(.revsh_text), (4 bytes).
    Removing dadd.o(.text), (334 bytes).
    Removing dfixul.o(.text), (48 bytes).
    Removing cdrcmple.o(.text), (40 bytes).

83 unused section(s) (total 5981 bytes) removed from the image.

==============================================================================

Image Symbol Table

    Local Symbols

    Symbol Name                              Value     Ov Type        Size  Object(Section)

    ../clib/../cmprslib/zerorunl2.c          0x00000000   Number         0  __dczerorl2.o ABSOLUTE
    ../clib/microlib/ctype/ctype.c           0x00000000   Number         0  isspace_c.o ABSOLUTE
    ../clib/microlib/ctype/ctype.c           0x00000000   Number         0  isspace_o.o ABSOLUTE
    ../clib/microlib/ctype/ctype.c           0x00000000   Number         0  isalpha_o.o ABSOLUTE
    ../clib/microlib/ctype/ctype.c           0x00000000   Number         0  ispunct_o.o ABSOLUTE
    ../clib/microlib/ctype/ctype.c           0x00000000   Number         0  isalnum_o.o ABSOLUTE
    ../clib/microlib/ctype/ctype.c           0x00000000   Number         0  isprint_o.o ABSOLUTE
    ../clib/microlib/ctype/ctype.c           0x00000000   Number         0  ctype_o.o ABSOLUTE
    ../clib/microlib/ctype/ctype.c           0x00000000   Number         0  islower_o.o ABSOLUTE
    ../clib/microlib/ctype/ctype.c           0x00000000   Number         0  ctype_c.o ABSOLUTE
    ../clib/microlib/ctype/ctype.c           0x00000000   Number         0  isgraph_o.o ABSOLUTE
    ../clib/microlib/ctype/ctype.c           0x00000000   Number         0  isdigit_o.o ABSOLUTE
    ../clib/microlib/ctype/ctype.c           0x00000000   Number         0  isupper_o.o ABSOLUTE
    ../clib/microlib/ctype/ctype.c           0x00000000   Number         0  iscntrl_o.o ABSOLUTE
    ../clib/microlib/ctype/ctype.c           0x00000000   Number         0  isxdigit_o.o ABSOLUTE
    ../clib/microlib/ctype/ctype.c           0x00000000   Number         0  isblank_o.o ABSOLUTE
    ../clib/microlib/division.c              0x00000000   Number         0  uidiv.o ABSOLUTE
    ../clib/microlib/division.c              0x00000000   Number         0  uldiv.o ABSOLUTE
    ../clib/microlib/errno.c                 0x00000000   Number         0  errno.o ABSOLUTE
    ../clib/microlib/init/entry.s            0x00000000   Number         0  entry10a.o ABSOLUTE
    ../clib/microlib/init/entry.s            0x00000000   Number         0  entry7a.o ABSOLUTE
    ../clib/microlib/init/entry.s            0x00000000   Number         0  entry9a.o ABSOLUTE
    ../clib/microlib/init/entry.s            0x00000000   Number         0  entry7b.o ABSOLUTE
    ../clib/microlib/init/entry.s            0x00000000   Number         0  entry9b.o ABSOLUTE
    ../clib/microlib/init/entry.s            0x00000000   Number         0  entry8a.o ABSOLUTE
    ../clib/microlib/init/entry.s            0x00000000   Number         0  entry8b.o ABSOLUTE
    ../clib/microlib/init/entry.s            0x00000000   Number         0  entry11b.o ABSOLUTE
    ../clib/microlib/init/entry.s            0x00000000   Number         0  entry11a.o ABSOLUTE
    ../clib/microlib/init/entry.s            0x00000000   Number         0  entry10b.o ABSOLUTE
    ../clib/microlib/init/entry.s            0x00000000   Number         0  entry5.o ABSOLUTE
    ../clib/microlib/init/entry.s            0x00000000   Number         0  entry2.o ABSOLUTE
    ../clib/microlib/init/entry.s            0x00000000   Number         0  entry.o ABSOLUTE
    ../clib/microlib/longlong.c              0x00000000   Number         0  llushr.o ABSOLUTE
    ../clib/microlib/longlong.c              0x00000000   Number         0  llsshr.o ABSOLUTE
    ../clib/microlib/longlong.c              0x00000000   Number         0  llshl.o ABSOLUTE
    ../clib/microlib/printf/printf.c         0x00000000   Number         0  printf2.o ABSOLUTE
    ../clib/microlib/printf/printf.c         0x00000000   Number         0  printf3.o ABSOLUTE
    ../clib/microlib/printf/printf.c         0x00000000   Number         0  printf4.o ABSOLUTE
    ../clib/microlib/printf/printf.c         0x00000000   Number         0  printf8.o ABSOLUTE
    ../clib/microlib/printf/printf.c         0x00000000   Number         0  printfb.o ABSOLUTE
    ../clib/microlib/printf/printf.c         0x00000000   Number         0  printf5.o ABSOLUTE
    ../clib/microlib/printf/printf.c         0x00000000   Number         0  printf7.o ABSOLUTE
    ../clib/microlib/printf/printf.c         0x00000000   Number         0  printfa.o ABSOLUTE
    ../clib/microlib/printf/printf.c         0x00000000   Number         0  printf0.o ABSOLUTE
    ../clib/microlib/printf/printf.c         0x00000000   Number         0  printf1.o ABSOLUTE
    ../clib/microlib/printf/printf.c         0x00000000   Number         0  printf6.o ABSOLUTE
    ../clib/microlib/printf/stubs.s          0x00000000   Number         0  stubs.o ABSOLUTE
    ../clib/microlib/stdio/fputc.c           0x00000000   Number         0  fputc.o ABSOLUTE
    ../clib/microlib/stdio/semi.s            0x00000000   Number         0  semi.o ABSOLUTE
    ../clib/microlib/stdio/streams.c         0x00000000   Number         0  stdout.o ABSOLUTE
    ../clib/microlib/string/memcmp.c         0x00000000   Number         0  memcmp.o ABSOLUTE
    ../clib/microlib/string/memcpy.c         0x00000000   Number         0  memcpyb.o ABSOLUTE
    ../clib/microlib/string/memcpy.c         0x00000000   Number         0  memcpya.o ABSOLUTE
    ../clib/microlib/string/memset.c         0x00000000   Number         0  memseta.o ABSOLUTE
    ../clib/microlib/string/strcat.c         0x00000000   Number         0  strcat.o ABSOLUTE
    ../clib/microlib/string/strchr.c         0x00000000   Number         0  strchr.o ABSOLUTE
    ../clib/microlib/string/strcpy.c         0x00000000   Number         0  strcpy.o ABSOLUTE
    ../clib/microlib/string/strlen.c         0x00000000   Number         0  strlen.o ABSOLUTE
    ../clib/microlib/string/strncat.c        0x00000000   Number         0  strncat.o ABSOLUTE
    ../clib/microlib/string/strncmp.c        0x00000000   Number         0  strncmp.o ABSOLUTE
    ../clib/microlib/string/strncpy.c        0x00000000   Number         0  strncpy.o ABSOLUTE
    ../clib/microlib/string/strstr.c         0x00000000   Number         0  strstr.o ABSOLUTE
    ../clib/microlib/stubs.s                 0x00000000   Number         0  iusefp.o ABSOLUTE
    ../clib/microlib/stubs.s                 0x00000000   Number         0  iusesemip.o ABSOLUTE
    ../clib/scanf.c                          0x00000000   Number         0  atoi.o ABSOLUTE
    ../clib/scanf.c                          0x00000000   Number         0  _strtoul.o ABSOLUTE
    ../clib/scanf.c                          0x00000000   Number         0  _chval.o ABSOLUTE
    ../clib/scanf.c                          0x00000000   Number         0  strtol.o ABSOLUTE
    ../clib/scanf.c                          0x00000000   Number         0  _sgetc.o ABSOLUTE
    ../clib/scanf.c                          0x00000000   Number         0  scanf_fp.o ABSOLUTE
    ../clib/scanf.c                          0x00000000   Number         0  strtoul.o ABSOLUTE
    ../clib/scanf.c                          0x00000000   Number         0  strtod.o ABSOLUTE
    ../fplib/microlib/d2f.c                  0x00000000   Number         0  d2f.o ABSOLUTE
    ../fplib/microlib/fpadd.c                0x00000000   Number         0  dadd.o ABSOLUTE
    ../fplib/microlib/fpdiv.c                0x00000000   Number         0  ddiv.o ABSOLUTE
    ../fplib/microlib/fpepilogue.c           0x00000000   Number         0  fepilogue.o ABSOLUTE
    ../fplib/microlib/fpepilogue.c           0x00000000   Number         0  depilogue.o ABSOLUTE
    ../fplib/microlib/fpfix.c                0x00000000   Number         0  dfixul.o ABSOLUTE
    ../fplib/microlib/fpflt.c                0x00000000   Number         0  dfltul.o ABSOLUTE
    ../fplib/microlib/fpmul.c                0x00000000   Number         0  dmul.o ABSOLUTE
    ../mathlib/atof.c                        0x00000000   Number         0  atof.o ABSOLUTE
    ..\Libraries\CMSIS\system_stm32f4xx.c    0x00000000   Number         0  system_stm32f4xx.o ABSOLUTE
    ..\Libraries\STM32F4x7_ETH_Driver\src\stm32f4x7_eth.c 0x00000000   Number         0  stm32f4x7_eth.o ABSOLUTE
    ..\Libraries\STM32F4xx_StdPeriph_Driver\src\misc.c 0x00000000   Number         0  misc.o ABSOLUTE
    ..\Libraries\STM32F4xx_StdPeriph_Driver\src\stm32f4xx_dma.c 0x00000000   Number         0  stm32f4xx_dma.o ABSOLUTE
    ..\Libraries\STM32F4xx_StdPeriph_Driver\src\stm32f4xx_exti.c 0x00000000   Number         0  stm32f4xx_exti.o ABSOLUTE
    ..\Libraries\STM32F4xx_StdPeriph_Driver\src\stm32f4xx_flash.c 0x00000000   Number         0  stm32f4xx_flash.o ABSOLUTE
    ..\Libraries\STM32F4xx_StdPeriph_Driver\src\stm32f4xx_fmc.c 0x00000000   Number         0  stm32f4xx_fmc.o ABSOLUTE
    ..\Libraries\STM32F4xx_StdPeriph_Driver\src\stm32f4xx_gpio.c 0x00000000   Number         0  stm32f4xx_gpio.o ABSOLUTE
    ..\Libraries\STM32F4xx_StdPeriph_Driver\src\stm32f4xx_rcc.c 0x00000000   Number         0  stm32f4xx_rcc.o ABSOLUTE
    ..\Libraries\STM32F4xx_StdPeriph_Driver\src\stm32f4xx_rtc.c 0x00000000   Number         0  stm32f4xx_rtc.o ABSOLUTE
    ..\Libraries\STM32F4xx_StdPeriph_Driver\src\stm32f4xx_sdio.c 0x00000000   Number         0  stm32f4xx_sdio.o ABSOLUTE
    ..\Libraries\STM32F4xx_StdPeriph_Driver\src\stm32f4xx_syscfg.c 0x00000000   Number         0  stm32f4xx_syscfg.o ABSOLUTE
    ..\Libraries\STM32F4xx_StdPeriph_Driver\src\stm32f4xx_tim.c 0x00000000   Number         0  stm32f4xx_tim.o ABSOLUTE
    ..\Libraries\STM32F4xx_StdPeriph_Driver\src\stm32f4xx_usart.c 0x00000000   Number         0  stm32f4xx_usart.o ABSOLUTE
    ..\Utilities\FatFs_vR0.09b\diskio.c      0x00000000   Number         0  diskio.o ABSOLUTE
    ..\Utilities\FatFs_vR0.09b\fattime.c     0x00000000   Number         0  fattime.o ABSOLUTE
    ..\Utilities\FatFs_vR0.09b\ff.c          0x00000000   Number         0  ff.o ABSOLUTE
    ..\Utilities\FatFs_vR0.09b\sdio_sd.c     0x00000000   Number         0  sdio_sd.o ABSOLUTE
    ..\Utilities\FreeRTOSV7.3.0\croutine.c   0x00000000   Number         0  croutine.o ABSOLUTE
    ..\Utilities\FreeRTOSV7.3.0\list.c       0x00000000   Number         0  list.o ABSOLUTE
    ..\Utilities\FreeRTOSV7.3.0\portable\MemMang\heap_4.c 0x00000000   Number         0  heap_4.o ABSOLUTE
    ..\Utilities\FreeRTOSV7.3.0\portable\RVDS\ARM_CM3\port.c 0x00000000   Number         0  port.o ABSOLUTE
    ..\Utilities\FreeRTOSV7.3.0\queue.c      0x00000000   Number         0  queue.o ABSOLUTE
    ..\Utilities\FreeRTOSV7.3.0\tasks.c      0x00000000   Number         0  tasks.o ABSOLUTE
    ..\Utilities\lwip-1.4.1\port\STM32F4x7\FreeRTOS\ethernetif.c 0x00000000   Number         0  ethernetif.o ABSOLUTE
    ..\Utilities\lwip-1.4.1\port\STM32F4x7\FreeRTOS\sys_arch.c 0x00000000   Number         0  sys_arch.o ABSOLUTE
    ..\Utilities\lwip-1.4.1\src\api\api_lib.c 0x00000000   Number         0  api_lib.o ABSOLUTE
    ..\Utilities\lwip-1.4.1\src\api\api_msg.c 0x00000000   Number         0  api_msg.o ABSOLUTE
    ..\Utilities\lwip-1.4.1\src\api\err.c    0x00000000   Number         0  err.o ABSOLUTE
    ..\Utilities\lwip-1.4.1\src\api\netbuf.c 0x00000000   Number         0  netbuf.o ABSOLUTE
    ..\Utilities\lwip-1.4.1\src\api\netdb.c  0x00000000   Number         0  netdb.o ABSOLUTE
    ..\Utilities\lwip-1.4.1\src\api\netifapi.c 0x00000000   Number         0  netifapi.o ABSOLUTE
    ..\Utilities\lwip-1.4.1\src\api\sockets.c 0x00000000   Number         0  sockets.o ABSOLUTE
    ..\Utilities\lwip-1.4.1\src\api\tcpip.c  0x00000000   Number         0  tcpip.o ABSOLUTE
    ..\Utilities\lwip-1.4.1\src\core\def.c   0x00000000   Number         0  def.o ABSOLUTE
    ..\Utilities\lwip-1.4.1\src\core\dhcp.c  0x00000000   Number         0  dhcp.o ABSOLUTE
    ..\Utilities\lwip-1.4.1\src\core\dns.c   0x00000000   Number         0  dns.o ABSOLUTE
    ..\Utilities\lwip-1.4.1\src\core\init.c  0x00000000   Number         0  init.o ABSOLUTE
    ..\Utilities\lwip-1.4.1\src\core\ipv4\autoip.c 0x00000000   Number         0  autoip.o ABSOLUTE
    ..\Utilities\lwip-1.4.1\src\core\ipv4\icmp.c 0x00000000   Number         0  icmp.o ABSOLUTE
    ..\Utilities\lwip-1.4.1\src\core\ipv4\igmp.c 0x00000000   Number         0  igmp.o ABSOLUTE
    ..\Utilities\lwip-1.4.1\src\core\ipv4\inet.c 0x00000000   Number         0  inet.o ABSOLUTE
    ..\Utilities\lwip-1.4.1\src\core\ipv4\inet_chksum.c 0x00000000   Number         0  inet_chksum.o ABSOLUTE
    ..\Utilities\lwip-1.4.1\src\core\ipv4\ip.c 0x00000000   Number         0  ip.o ABSOLUTE
    ..\Utilities\lwip-1.4.1\src\core\ipv4\ip_addr.c 0x00000000   Number         0  ip_addr.o ABSOLUTE
    ..\Utilities\lwip-1.4.1\src\core\ipv4\ip_frag.c 0x00000000   Number         0  ip_frag.o ABSOLUTE
    ..\Utilities\lwip-1.4.1\src\core\mem.c   0x00000000   Number         0  mem.o ABSOLUTE
    ..\Utilities\lwip-1.4.1\src\core\memp.c  0x00000000   Number         0  memp.o ABSOLUTE
    ..\Utilities\lwip-1.4.1\src\core\netif.c 0x00000000   Number         0  netif.o ABSOLUTE
    ..\Utilities\lwip-1.4.1\src\core\pbuf.c  0x00000000   Number         0  pbuf.o ABSOLUTE
    ..\Utilities\lwip-1.4.1\src\core\raw.c   0x00000000   Number         0  raw.o ABSOLUTE
    ..\Utilities\lwip-1.4.1\src\core\stats.c 0x00000000   Number         0  stats.o ABSOLUTE
    ..\Utilities\lwip-1.4.1\src\core\sys.c   0x00000000   Number         0  sys.o ABSOLUTE
    ..\Utilities\lwip-1.4.1\src\core\tcp.c   0x00000000   Number         0  tcp.o ABSOLUTE
    ..\Utilities\lwip-1.4.1\src\core\tcp_in.c 0x00000000   Number         0  tcp_in.o ABSOLUTE
    ..\Utilities\lwip-1.4.1\src\core\tcp_out.c 0x00000000   Number         0  tcp_out.o ABSOLUTE
    ..\Utilities\lwip-1.4.1\src\core\timers.c 0x00000000   Number         0  timers.o ABSOLUTE
    ..\Utilities\lwip-1.4.1\src\core\udp.c   0x00000000   Number         0  udp.o ABSOLUTE
    ..\Utilities\lwip-1.4.1\src\netif\etharp.c 0x00000000   Number         0  etharp.o ABSOLUTE
    ..\\Libraries\\CMSIS\\system_stm32f4xx.c 0x00000000   Number         0  system_stm32f4xx.o ABSOLUTE
    ..\\Libraries\\STM32F4x7_ETH_Driver\\src\\stm32f4x7_eth.c 0x00000000   Number         0  stm32f4x7_eth.o ABSOLUTE
    ..\\Libraries\\STM32F4xx_StdPeriph_Driver\\src\\misc.c 0x00000000   Number         0  misc.o ABSOLUTE
    ..\\Libraries\\STM32F4xx_StdPeriph_Driver\\src\\stm32f4xx_dma.c 0x00000000   Number         0  stm32f4xx_dma.o ABSOLUTE
    ..\\Libraries\\STM32F4xx_StdPeriph_Driver\\src\\stm32f4xx_exti.c 0x00000000   Number         0  stm32f4xx_exti.o ABSOLUTE
    ..\\Libraries\\STM32F4xx_StdPeriph_Driver\\src\\stm32f4xx_flash.c 0x00000000   Number         0  stm32f4xx_flash.o ABSOLUTE
    ..\\Libraries\\STM32F4xx_StdPeriph_Driver\\src\\stm32f4xx_fmc.c 0x00000000   Number         0  stm32f4xx_fmc.o ABSOLUTE
    ..\\Libraries\\STM32F4xx_StdPeriph_Driver\\src\\stm32f4xx_gpio.c 0x00000000   Number         0  stm32f4xx_gpio.o ABSOLUTE
    ..\\Libraries\\STM32F4xx_StdPeriph_Driver\\src\\stm32f4xx_rcc.c 0x00000000   Number         0  stm32f4xx_rcc.o ABSOLUTE
    ..\\Libraries\\STM32F4xx_StdPeriph_Driver\\src\\stm32f4xx_rtc.c 0x00000000   Number         0  stm32f4xx_rtc.o ABSOLUTE
    ..\\Libraries\\STM32F4xx_StdPeriph_Driver\\src\\stm32f4xx_sdio.c 0x00000000   Number         0  stm32f4xx_sdio.o ABSOLUTE
    ..\\Libraries\\STM32F4xx_StdPeriph_Driver\\src\\stm32f4xx_syscfg.c 0x00000000   Number         0  stm32f4xx_syscfg.o ABSOLUTE
    ..\\Libraries\\STM32F4xx_StdPeriph_Driver\\src\\stm32f4xx_tim.c 0x00000000   Number         0  stm32f4xx_tim.o ABSOLUTE
    ..\\Libraries\\STM32F4xx_StdPeriph_Driver\\src\\stm32f4xx_usart.c 0x00000000   Number         0  stm32f4xx_usart.o ABSOLUTE
    ..\\Utilities\\FatFs_vR0.09b\\diskio.c   0x00000000   Number         0  diskio.o ABSOLUTE
    ..\\Utilities\\FatFs_vR0.09b\\fattime.c  0x00000000   Number         0  fattime.o ABSOLUTE
    ..\\Utilities\\FatFs_vR0.09b\\ff.c       0x00000000   Number         0  ff.o ABSOLUTE
    ..\\Utilities\\FatFs_vR0.09b\\sdio_sd.c  0x00000000   Number         0  sdio_sd.o ABSOLUTE
    ..\\Utilities\\FreeRTOSV7.3.0\\portable\\RVDS\\ARM_CM3\\port.c 0x00000000   Number         0  port.o ABSOLUTE
    ..\\Utilities\\lwip-1.4.1\\port\\STM32F4x7\\FreeRTOS\\ethernetif.c 0x00000000   Number         0  ethernetif.o ABSOLUTE
    ..\\main.c                               0x00000000   Number         0  main.o ABSOLUTE
    ..\\src\\FTP_Server\\ftp_server.c        0x00000000   Number         0  ftp_server.o ABSOLUTE
    ..\\src\\Usart\\usart1.c                 0x00000000   Number         0  usart1.o ABSOLUTE
    ..\\src\\Usart\\usart2.c                 0x00000000   Number         0  usart2.o ABSOLUTE
    ..\\src\\Usart\\usart3.c                 0x00000000   Number         0  usart3.o ABSOLUTE
    ..\\src\\Usart\\usart4.c                 0x00000000   Number         0  usart4.o ABSOLUTE
    ..\\src\\algbloc.c                       0x00000000   Number         0  algbloc.o ABSOLUTE
    ..\\src\\modbus.c                        0x00000000   Number         0  modbus.o ABSOLUTE
    ..\\src\\netconf.c                       0x00000000   Number         0  netconf.o ABSOLUTE
    ..\\src\\stm32f4x7_eth_bsp.c             0x00000000   Number         0  stm32f4x7_eth_bsp.o ABSOLUTE
    ..\\src\\stm32f4xx_it.c                  0x00000000   Number         0  stm32f4xx_it.o ABSOLUTE
    ..\\src\\sys_config.c                    0x00000000   Number         0  sys_config.o ABSOLUTE
    ..\\src\\udp_server.c                    0x00000000   Number         0  udp_server.o ABSOLUTE
    ..\\src\\utilities.c                     0x00000000   Number         0  utilities.o ABSOLUTE
    ..\main.c                                0x00000000   Number         0  main.o ABSOLUTE
    ..\src\FTP_Server\ftp_server.c           0x00000000   Number         0  ftp_server.o ABSOLUTE
    ..\src\Usart\usart1.c                    0x00000000   Number         0  usart1.o ABSOLUTE
    ..\src\Usart\usart2.c                    0x00000000   Number         0  usart2.o ABSOLUTE
    ..\src\Usart\usart3.c                    0x00000000   Number         0  usart3.o ABSOLUTE
    ..\src\Usart\usart4.c                    0x00000000   Number         0  usart4.o ABSOLUTE
    ..\src\algbloc.c                         0x00000000   Number         0  algbloc.o ABSOLUTE
    ..\src\modbus.c                          0x00000000   Number         0  modbus.o ABSOLUTE
    ..\src\netconf.c                         0x00000000   Number         0  netconf.o ABSOLUTE
    ..\src\stm32f4x7_eth_bsp.c               0x00000000   Number         0  stm32f4x7_eth_bsp.o ABSOLUTE
    ..\src\stm32f4xx_it.c                    0x00000000   Number         0  stm32f4xx_it.o ABSOLUTE
    ..\src\sys_config.c                      0x00000000   Number         0  sys_config.o ABSOLUTE
    ..\src\udp_server.c                      0x00000000   Number         0  udp_server.o ABSOLUTE
    ..\src\utilities.c                       0x00000000   Number         0  utilities.o ABSOLUTE
    cdrcmple.s                               0x00000000   Number         0  cdrcmple.o ABSOLUTE
    dc.s                                     0x00000000   Number         0  dc.o ABSOLUTE
    handlers.s                               0x00000000   Number         0  handlers.o ABSOLUTE
    init.s                                   0x00000000   Number         0  init.o ABSOLUTE
    startup_stm32f427x.s                     0x00000000   Number         0  startup_stm32f427x.o ABSOLUTE
    RESET                                    0x08000000   Section      412  startup_stm32f427x.o(RESET)
    .ARM.Collect$$$$00000000                 0x0800019c   Section        0  entry.o(.ARM.Collect$$$$00000000)
    .ARM.Collect$$$$00000001                 0x0800019c   Section        4  entry2.o(.ARM.Collect$$$$00000001)
    .ARM.Collect$$$$00000004                 0x080001a0   Section        4  entry5.o(.ARM.Collect$$$$00000004)
    .ARM.Collect$$$$00000008                 0x080001a4   Section        0  entry7b.o(.ARM.Collect$$$$00000008)
    .ARM.Collect$$$$0000000A                 0x080001a4   Section        0  entry8b.o(.ARM.Collect$$$$0000000A)
    .ARM.Collect$$$$0000000B                 0x080001a4   Section        8  entry9a.o(.ARM.Collect$$$$0000000B)
    .ARM.Collect$$$$0000000D                 0x080001ac   Section        0  entry10a.o(.ARM.Collect$$$$0000000D)
    .ARM.Collect$$$$0000000F                 0x080001ac   Section        0  entry11a.o(.ARM.Collect$$$$0000000F)
    .ARM.Collect$$$$00002712                 0x080001ac   Section        4  entry2.o(.ARM.Collect$$$$00002712)
    __lit__00000000                          0x080001ac   Data           4  entry2.o(.ARM.Collect$$$$00002712)
    .emb_text                                0x080001b0   Section      168  port.o(.emb_text)
    $v0                                      0x080001b0   Number         0  port.o(.emb_text)
    .text                                    0x08000258   Section        0  system_stm32f4xx.o(.text)
    SetSysClock                              0x08000259   Thumb Code   182  system_stm32f4xx.o(.text)
    SystemInit_ExtMemCtl                     0x0800030f   Thumb Code   804  system_stm32f4xx.o(.text)
    .text                                    0x08000738   Section       36  startup_stm32f427x.o(.text)
    $v0                                      0x08000738   Number         0  startup_stm32f427x.o(.text)
    .text                                    0x0800075c   Section        0  api_lib.o(.text)
    netconn_recv_data                        0x08000973   Thumb Code   200  api_lib.o(.text)
    netconn_close_shutdown                   0x08000bed   Thumb Code    56  api_lib.o(.text)
    .text                                    0x08000c3c   Section        0  api_msg.o(.text)
    recv_raw                                 0x08000c3d   Thumb Code   116  api_msg.o(.text)
    recv_udp                                 0x08000cb1   Thumb Code   110  api_msg.o(.text)
    recv_tcp                                 0x08000d1f   Thumb Code   110  api_msg.o(.text)
    err_tcp                                  0x08000d8d   Thumb Code   154  api_msg.o(.text)
    do_writemore                             0x08000e27   Thumb Code   264  api_msg.o(.text)
    sent_tcp                                 0x08000f2f   Thumb Code    86  api_msg.o(.text)
    do_close_internal                        0x08000f85   Thumb Code   240  api_msg.o(.text)
    poll_tcp                                 0x08001075   Thumb Code    86  api_msg.o(.text)
    setup_tcp                                0x080010cb   Thumb Code    50  api_msg.o(.text)
    accept_function                          0x080011a7   Thumb Code   156  api_msg.o(.text)
    netconn_drain                            0x08001263   Thumb Code   144  api_msg.o(.text)
    do_connected                             0x080013e1   Thumb Code   106  api_msg.o(.text)
    pcb_new                                  0x0800178b   Thumb Code   122  api_msg.o(.text)
    .text                                    0x08001810   Section        0  netbuf.o(.text)
    .text                                    0x08001940   Section        0  sockets.o(.text)
    alloc_socket                             0x08001943   Thumb Code    96  sockets.o(.text)
    event_callback                           0x08001ef1   Thumb Code   288  sockets.o(.text)
    lwip_selscan                             0x0800207d   Thumb Code   256  sockets.o(.text)
    lwip_getaddrname                         0x08002429   Thumb Code   106  sockets.o(.text)
    lwip_getsockopt_internal                 0x0800249b   Thumb Code   236  sockets.o(.text)
    lwip_setsockopt_internal                 0x08002675   Thumb Code   204  sockets.o(.text)
    get_socket                               0x0800289f   Thumb Code    24  sockets.o(.text)
    tryget_socket                            0x080028b7   Thumb Code    26  sockets.o(.text)
    .text                                    0x080028dc   Section        0  tcpip.o(.text)
    tcpip_thread                             0x080028dd   Thumb Code   122  tcpip.o(.text)
    pbuf_free_int                            0x08002b23   Thumb Code     4  tcpip.o(.text)
    .text                                    0x08002b50   Section        0  def.o(.text)
    .text                                    0x08002b60   Section        0  dhcp.o(.text)
    dhcp_option_trailer                      0x08002b61   Thumb Code    44  dhcp.o(.text)
    dhcp_create_msg                          0x08002b8d   Thumb Code   282  dhcp.o(.text)
    dhcp_discover                            0x08002ca7   Thumb Code   184  dhcp.o(.text)
    dhcp_check                               0x08002d5f   Thumb Code    38  dhcp.o(.text)
    dhcp_option_long                         0x08002d85   Thumb Code    66  dhcp.o(.text)
    dhcp_select                              0x08002dc7   Thumb Code   228  dhcp.o(.text)
    dhcp_rebind                              0x08002f2f   Thumb Code   142  dhcp.o(.text)
    dhcp_reboot                              0x08003017   Thumb Code   156  dhcp.o(.text)
    dhcp_bind                                0x08003153   Thumb Code   192  dhcp.o(.text)
    dhcp_parse_reply                         0x08003297   Thumb Code   512  dhcp.o(.text)
    dhcp_recv                                0x08003497   Thumb Code   266  dhcp.o(.text)
    dhcp_delete_msg                          0x0800372d   Thumb Code    22  dhcp.o(.text)
    dhcp_option_byte                         0x08003743   Thumb Code    16  dhcp.o(.text)
    dhcp_option                              0x08003753   Thumb Code    32  dhcp.o(.text)
    dhcp_option_short                        0x08003773   Thumb Code    34  dhcp.o(.text)
    dhcp_set_state                           0x08003795   Thumb Code    16  dhcp.o(.text)
    dhcp_timeout                             0x080037a5   Thumb Code   150  dhcp.o(.text)
    dhcp_handle_ack                          0x0800383b   Thumb Code    88  dhcp.o(.text)
    dhcp_decline                             0x08003893   Thumb Code   104  dhcp.o(.text)
    .text                                    0x08003904   Section        0  init.o(.text)
    .text                                    0x08003930   Section        0  mem.o(.text)
    plug_holes                               0x08003bfd   Thumb Code    78  mem.o(.text)
    .text                                    0x08003c58   Section        0  memp.o(.text)
    .text                                    0x08003d58   Section        0  netif.o(.text)
    .text                                    0x08003f60   Section        0  pbuf.o(.text)
    .text                                    0x08004448   Section        0  raw.o(.text)
    .text                                    0x080045b8   Section        0  stats.o(.text)
    .text                                    0x080045f4   Section        0  tcp.o(.text)
    tcp_close_shutdown                       0x080048ff   Thumb Code   288  tcp.o(.text)
    tcp_new_port                             0x08004c7d   Thumb Code    82  tcp.o(.text)
    tcp_accept_null                          0x08004d47   Thumb Code     6  tcp.o(.text)
    .text                                    0x08005034   Section        0  tcp_in.o(.text)
    tcp_receive                              0x08005035   Thumb Code  1042  tcp_in.o(.text)
    tcp_parseopt                             0x08005447   Thumb Code   122  tcp_in.o(.text)
    tcp_process                              0x080054c1   Thumb Code   788  tcp_in.o(.text)
    tcp_listen_input                         0x080057d5   Thumb Code   252  tcp_in.o(.text)
    tcp_timewait_input                       0x08005c1b   Thumb Code   134  tcp_in.o(.text)
    .text                                    0x08005ca0   Section        0  tcp_out.o(.text)
    tcp_output_alloc_header                  0x08005ca1   Thumb Code   106  tcp_out.o(.text)
    tcp_create_segment                       0x08005d0b   Thumb Code   166  tcp_out.o(.text)
    tcp_pbuf_prealloc                        0x08005ec3   Thumb Code    76  tcp_out.o(.text)
    tcp_output_segment                       0x08006273   Thumb Code   180  tcp_out.o(.text)
    .text                                    0x080066ec   Section        0  timers.o(.text)
    tcpip_tcp_timer                          0x08006745   Thumb Code    38  timers.o(.text)
    arp_timer                                0x0800678d   Thumb Code    20  timers.o(.text)
    dhcp_timer_coarse                        0x080067a1   Thumb Code    20  timers.o(.text)
    dhcp_timer_fine                          0x080067b5   Thumb Code    20  timers.o(.text)
    .text                                    0x080068ac   Section        0  udp.o(.text)
    .text                                    0x08006c94   Section        0  icmp.o(.text)
    icmp_send_response                       0x08006de5   Thumb Code   110  icmp.o(.text)
    .text                                    0x08006e60   Section        0  inet_chksum.o(.text)
    lwip_standard_chksum                     0x08006e61   Thumb Code    88  inet_chksum.o(.text)
    .text                                    0x08007030   Section        0  ip.o(.text)
    .text                                    0x08007328   Section        0  ip_addr.o(.text)
    .text                                    0x08007508   Section        0  etharp.o(.text)
    etharp_free_entry                        0x08007509   Thumb Code    50  etharp.o(.text)
    etharp_find_entry                        0x0800757d   Thumb Code   216  etharp.o(.text)
    etharp_arp_input                         0x080076b3   Thumb Code   252  etharp.o(.text)
    etharp_output_to_arp_index               0x080077d1   Thumb Code    62  etharp.o(.text)
    etharp_send_ip                           0x08007ac5   Thumb Code    32  etharp.o(.text)
    etharp_update_arp_entry                  0x08007ae5   Thumb Code   116  etharp.o(.text)
    etharp_raw                               0x08007b59   Thumb Code   172  etharp.o(.text)
    .text                                    0x08007c14   Section        0  ethernetif.o(.text)
    ethernetif_input                         0x08007c31   Thumb Code    48  ethernetif.o(.text)
    low_level_init                           0x08007c61   Thumb Code   214  ethernetif.o(.text)
    low_level_output                         0x08007d37   Thumb Code   208  ethernetif.o(.text)
    arp_timer                                0x08007e07   Thumb Code    22  ethernetif.o(.text)
    low_level_input                          0x08007e47   Thumb Code   182  ethernetif.o(.text)
    .text                                    0x08007f34   Section        0  sys_arch.o(.text)
    .text                                    0x08008180   Section        0  misc.o(.text)
    .text                                    0x08008230   Section        0  stm32f4xx_dma.o(.text)
    .text                                    0x08008550   Section        0  stm32f4xx_exti.o(.text)
    .text                                    0x08008638   Section        0  stm32f4xx_fmc.o(.text)
    .text                                    0x08008d28   Section        0  stm32f4xx_gpio.o(.text)
    .text                                    0x08008f40   Section        0  stm32f4xx_rcc.o(.text)
    .text                                    0x080093b0   Section        0  stm32f4xx_sdio.o(.text)
    .text                                    0x08009568   Section        0  stm32f4xx_syscfg.o(.text)
    .text                                    0x080095e0   Section        0  stm32f4xx_usart.o(.text)
    .text                                    0x0800991c   Section        0  stm32f4xx_rtc.o(.text)
    RTC_ByteToBcd2                           0x0800a32f   Thumb Code    24  stm32f4xx_rtc.o(.text)
    RTC_Bcd2ToByte                           0x0800a347   Thumb Code    18  stm32f4xx_rtc.o(.text)
    .text                                    0x0800a364   Section        0  stm32f4xx_tim.o(.text)
    TI2_Config                               0x0800a9af   Thumb Code    54  stm32f4xx_tim.o(.text)
    TI1_Config                               0x0800ad13   Thumb Code    46  stm32f4xx_tim.o(.text)
    .text                                    0x0800ad40   Section        0  stm32f4x7_eth.o(.text)
    .text                                    0x0800ba08   Section        0  port.o(.text)
    .text                                    0x0800bad4   Section        0  tasks.o(.text)
    prvAddCurrentTaskToDelayedList           0x0800bde1   Thumb Code    48  tasks.o(.text)
    prvIdleTask                              0x0800bef7   Thumb Code    18  tasks.o(.text)
    prvListTaskWithinSingleList              0x0800bf9d   Thumb Code   110  tasks.o(.text)
    prvCheckTasksWaitingTermination          0x0800c2a7   Thumb Code    78  tasks.o(.text)
    .text                                    0x0800c31c   Section        0  list.o(.text)
    .text                                    0x0800c3ac   Section        0  queue.o(.text)
    prvUnlockQueue                           0x0800c455   Thumb Code   100  queue.o(.text)
    prvCopyDataToQueue                       0x0800c4b9   Thumb Code    90  queue.o(.text)
    prvCopyDataFromQueue                     0x0800c67f   Thumb Code    40  queue.o(.text)
    .text                                    0x0800c9c4   Section        0  heap_4.o(.text)
    prvInsertBlockIntoFreeList               0x0800c9c5   Thumb Code    72  heap_4.o(.text)
    prvHeapInit                              0x0800cabf   Thumb Code    66  heap_4.o(.text)
    .text                                    0x0800cb08   Section        0  sdio_sd.o(.text)
    SD_LowLevel_DMA_TxConfig                 0x0800cb09   Thumb Code   126  sdio_sd.o(.text)
    SD_LowLevel_DMA_RxConfig                 0x0800cb87   Thumb Code   124  sdio_sd.o(.text)
    CmdResp1Error                            0x0800cc07   Thumb Code   226  sdio_sd.o(.text)
    FindSCR                                  0x0800cce9   Thumb Code   298  sdio_sd.o(.text)
    SDEnWideBus                              0x0800ce13   Thumb Code   180  sdio_sd.o(.text)
    CmdResp2Error                            0x0800d1cf   Thumb Code    46  sdio_sd.o(.text)
    SD_PowerON                               0x0800d2f7   Thumb Code   476  sdio_sd.o(.text)
    IsCardProgramming                        0x0800ddcf   Thumb Code   316  sdio_sd.o(.text)
    SD_LowLevel_DeInit                       0x0800e0d3   Thumb Code   142  sdio_sd.o(.text)
    SD_LowLevel_Init                         0x0800e161   Thumb Code   180  sdio_sd.o(.text)
    CmdResp6Error                            0x0800e215   Thumb Code   106  sdio_sd.o(.text)
    .text                                    0x0800e294   Section        0  ff.o(.text)
    sync_window                              0x0800e295   Thumb Code    84  ff.o(.text)
    move_window                              0x0800e2e9   Thumb Code    46  ff.o(.text)
    sync_fs                                  0x0800e317   Thumb Code   180  ff.o(.text)
    remove_chain                             0x0800e593   Thumb Code    96  ff.o(.text)
    create_chain                             0x0800e5f3   Thumb Code   148  ff.o(.text)
    dir_sdi                                  0x0800e687   Thumb Code   126  ff.o(.text)
    dir_next                                 0x0800e705   Thumb Code   232  ff.o(.text)
    dir_alloc                                0x0800e7ed   Thumb Code    64  ff.o(.text)
    dir_read                                 0x0800e82d   Thumb Code    88  ff.o(.text)
    dir_register                             0x0800e885   Thumb Code    56  ff.o(.text)
    dir_remove                               0x0800e8bd   Thumb Code    40  ff.o(.text)
    create_name                              0x0800e8e5   Thumb Code   244  ff.o(.text)
    get_fileinfo                             0x0800e9d9   Thumb Code    96  ff.o(.text)
    follow_path                              0x0800ea39   Thumb Code   170  ff.o(.text)
    check_fs                                 0x0800eae3   Thumb Code    86  ff.o(.text)
    chk_mounted                              0x0800eb39   Thumb Code   556  ff.o(.text)
    validate                                 0x0800ed65   Thumb Code    38  ff.o(.text)
    mem_cpy                                  0x0800fd99   Thumb Code    18  ff.o(.text)
    mem_set                                  0x0800fdab   Thumb Code    16  ff.o(.text)
    chk_chr                                  0x0800fdbb   Thumb Code    16  ff.o(.text)
    ld_clust                                 0x0800fdcb   Thumb Code    18  ff.o(.text)
    st_clust                                 0x0800fddd   Thumb Code    16  ff.o(.text)
    .text                                    0x0800fe00   Section        0  fattime.o(.text)
    .text                                    0x0800fe4c   Section        0  diskio.o(.text)
    .text                                    0x0800ff7c   Section        0  main.o(.text)
    .text                                    0x08010344   Section        0  stm32f4xx_it.o(.text)
    .text                                    0x080106ec   Section        0  stm32f4x7_eth_bsp.o(.text)
    ETH_MACDMA_Config                        0x080107c5   Thumb Code   134  stm32f4x7_eth_bsp.o(.text)
    ETH_GPIO_Config                          0x0801084b   Thumb Code   280  stm32f4x7_eth_bsp.o(.text)
    .text                                    0x08010ac8   Section        0  netconf.o(.text)
    .text                                    0x08010b68   Section        0  sys_config.o(.text)
    .text                                    0x08011574   Section        0  algbloc.o(.text)
    .text                                    0x080122c8   Section        0  udp_server.o(.text)
    .text                                    0x0801258c   Section        0  ftp_server.o(.text)
    vFTPConnection                           0x08012b6b   Thumb Code  1428  ftp_server.o(.text)
    FTP_CloseDataPort                        0x08013197   Thumb Code    18  ftp_server.o(.text)
    .text                                    0x080131e4   Section        0  usart1.o(.text)
    NVIC_EnableIRQ                           0x0801370b   Thumb Code    22  usart1.o(.text)
    .text                                    0x08013730   Section        0  usart2.o(.text)
    NVIC_EnableIRQ                           0x08013c25   Thumb Code    22  usart2.o(.text)
    .text                                    0x08013c48   Section        0  usart3.o(.text)
    NVIC_EnableIRQ                           0x080141d1   Thumb Code    22  usart3.o(.text)
    .text                                    0x08014200   Section        0  usart4.o(.text)
    NVIC_EnableIRQ                           0x08014671   Thumb Code    22  usart4.o(.text)
    .text                                    0x0801468c   Section        0  modbus.o(.text)
    .text                                    0x08014808   Section        0  utilities.o(.text)
    .text                                    0x08014aa8   Section        0  memcpya.o(.text)
    .text                                    0x08014acc   Section        0  memseta.o(.text)
    .text                                    0x08014af0   Section        0  strcat.o(.text)
    .text                                    0x08014b08   Section        0  strstr.o(.text)
    .text                                    0x08014b2c   Section        0  strncpy.o(.text)
    .text                                    0x08014b44   Section        0  strchr.o(.text)
    .text                                    0x08014b58   Section        0  strlen.o(.text)
    .text                                    0x08014b66   Section        0  memcmp.o(.text)
    .text                                    0x08014b80   Section        0  strncat.o(.text)
    .text                                    0x08014ba8   Section        0  strcpy.o(.text)
    .text                                    0x08014bba   Section        0  strncmp.o(.text)
    .text                                    0x08014bd8   Section        0  strtol.o(.text)
    .text                                    0x08014c48   Section        0  strtoul.o(.text)
    .text                                    0x08014cba   Section        0  atoi.o(.text)
    .text                                    0x08014cd4   Section        0  d2f.o(.text)
    .text                                    0x08014d0c   Section        0  uidiv.o(.text)
    .text                                    0x08014d38   Section        0  ctype_o.o(.text)
    .text                                    0x08014d40   Section        0  isspace_o.o(.text)
    .text                                    0x08014d52   Section        0  _strtoul.o(.text)
    .text                                    0x08014df0   Section        0  strtod.o(.text)
    _local_sscanf                            0x08014df1   Thumb Code    54  strtod.o(.text)
    .text                                    0x08014e8c   Section        0  iusefp.o(.text)
    .text                                    0x08014e8c   Section        0  fepilogue.o(.text)
    .text                                    0x08014efa   Section        0  dmul.o(.text)
    .text                                    0x08014fde   Section        0  ddiv.o(.text)
    .text                                    0x080150bc   Section       36  init.o(.text)
    .text                                    0x080150e0   Section        0  llshl.o(.text)
    .text                                    0x080150fe   Section        0  llushr.o(.text)
    .text                                    0x0801511e   Section        0  _chval.o(.text)
    .text                                    0x0801513c   Section        0  scanf_fp.o(.text)
    _fp_value                                0x0801513d   Thumb Code   256  scanf_fp.o(.text)
    .text                                    0x08015474   Section        0  _sgetc.o(.text)
    .text                                    0x080154b4   Section        0  depilogue.o(.text)
    .text                                    0x0801556a   Section        0  dfltul.o(.text)
    .text                                    0x08015582   Section        0  __dczerorl2.o(.text)
    i.__0sprintf$3                           0x080155d8   Section        0  printf3.o(i.__0sprintf$3)
    i.__aeabi_errno_addr                     0x08015600   Section        0  errno.o(i.__aeabi_errno_addr)
    i.__hardfp_atof                          0x08015608   Section        0  atof.o(i.__hardfp_atof)
    i.__read_errno                           0x08015640   Section        0  errno.o(i.__read_errno)
    i.__scatterload_copy                     0x0801564c   Section       14  handlers.o(i.__scatterload_copy)
    i.__scatterload_null                     0x0801565a   Section        2  handlers.o(i.__scatterload_null)
    i.__scatterload_zeroinit                 0x0801565c   Section       14  handlers.o(i.__scatterload_zeroinit)
    i.__set_errno                            0x0801566c   Section        0  errno.o(i.__set_errno)
    i._is_digit                              0x08015678   Section        0  scanf_fp.o(i._is_digit)
    i._printf_core                           0x08015688   Section        0  printf3.o(i._printf_core)
    _printf_core                             0x08015689   Thumb Code   436  printf3.o(i._printf_core)
    i._sputc                                 0x08015840   Section        0  printf3.o(i._sputc)
    _sputc                                   0x08015841   Thumb Code    10  printf3.o(i._sputc)
    .constdata                               0x0801584c   Section       64  sockets.o(.constdata)
    err_to_errno_table                       0x0801584c   Data          64  sockets.o(.constdata)
    .constdata                               0x0801588c   Section       48  memp.o(.constdata)
    memp_sizes                               0x0801588c   Data          24  memp.o(.constdata)
    memp_num                                 0x080158a4   Data          24  memp.o(.constdata)
    .constdata                               0x080158bc   Section       48  stats.o(.constdata)
    .constdata                               0x080158ec   Section       84  tcp.o(.constdata)
    .constdata                               0x08015940   Section        4  ip_addr.o(.constdata)
    .constdata                               0x08015944   Section        4  ip_addr.o(.constdata)
    .constdata                               0x08015948   Section       12  etharp.o(.constdata)
    .constdata                               0x08015954   Section       20  tasks.o(.constdata)
    ucExpectedStackBytes                     0x08015954   Data          20  tasks.o(.constdata)
    .constdata                               0x08015968   Section      128  ff.o(.constdata)
    ExCvt                                    0x08015968   Data         128  ff.o(.constdata)
    .constdata                               0x080159e8   Section      129  ctype_o.o(.constdata)
    .constdata                               0x08015a6c   Section        4  ctype_o.o(.constdata)
    table                                    0x08015a6c   Data           4  ctype_o.o(.constdata)
    .conststring                             0x08015a70   Section      136  stats.o(.conststring)
    .conststring                             0x08015af8   Section      109  tcp.o(.conststring)
    .data                                    0x20000000   Section       20  system_stm32f4xx.o(.data)
    .data                                    0x20000014   Section        8  sockets.o(.data)
    select_cb_list                           0x20000014   Data           4  sockets.o(.data)
    select_cb_ctr                            0x20000018   Data           4  sockets.o(.data)
    .data                                    0x2000001c   Section       12  tcpip.o(.data)
    tcpip_init_done                          0x2000001c   Data           4  tcpip.o(.data)
    tcpip_init_done_arg                      0x20000020   Data           4  tcpip.o(.data)
    mbox                                     0x20000024   Data           4  tcpip.o(.data)
    .data                                    0x20000028   Section        4  dhcp.o(.data)
    xid                                      0x20000028   Data           4  dhcp.o(.data)
    .data                                    0x2000002c   Section       16  mem.o(.data)
    ram                                      0x2000002c   Data           4  mem.o(.data)
    ram_end                                  0x20000030   Data           4  mem.o(.data)
    lfree                                    0x20000034   Data           4  mem.o(.data)
    mem_mutex                                0x20000038   Data           4  mem.o(.data)
    .data                                    0x2000003c   Section       12  netif.o(.data)
    netif_num                                0x2000003c   Data           1  netif.o(.data)
    .data                                    0x20000048   Section        4  raw.o(.data)
    raw_pcbs                                 0x20000048   Data           4  raw.o(.data)
    .data                                    0x2000004c   Section       36  tcp.o(.data)
    tcp_timer                                0x2000004d   Data           1  tcp.o(.data)
    tcp_timer_ctr                            0x2000004e   Data           1  tcp.o(.data)
    tcp_port                                 0x20000050   Data           2  tcp.o(.data)
    iss                                      0x20000054   Data           4  tcp.o(.data)
    .data                                    0x20000070   Section       28  tcp_in.o(.data)
    flags                                    0x20000070   Data           1  tcp_in.o(.data)
    recv_flags                               0x20000071   Data           1  tcp_in.o(.data)
    tcplen                                   0x20000072   Data           2  tcp_in.o(.data)
    tcphdr                                   0x20000074   Data           4  tcp_in.o(.data)
    iphdr                                    0x20000078   Data           4  tcp_in.o(.data)
    seqno                                    0x2000007c   Data           4  tcp_in.o(.data)
    ackno                                    0x20000080   Data           4  tcp_in.o(.data)
    recv_data                                0x20000084   Data           4  tcp_in.o(.data)
    .data                                    0x2000008c   Section        8  timers.o(.data)
    next_timeout                             0x2000008c   Data           4  timers.o(.data)
    tcpip_tcp_timer_active                   0x20000090   Data           4  timers.o(.data)
    .data                                    0x20000094   Section        8  udp.o(.data)
    udp_port                                 0x20000094   Data           2  udp.o(.data)
    .data                                    0x2000009c   Section       20  ip.o(.data)
    ip_id                                    0x2000009c   Data           2  ip.o(.data)
    .data                                    0x200000b0   Section        1  etharp.o(.data)
    etharp_cached_entry                      0x200000b0   Data           1  etharp.o(.data)
    .data                                    0x200000b4   Section       18  ethernetif.o(.data)
    s_pxNetIf                                0x200000b4   Data           4  ethernetif.o(.data)
    xTxSemaphore                             0x200000bc   Data           4  ethernetif.o(.data)
    mac_addrs_cnf                            0x200000c0   Data           6  ethernetif.o(.data)
    .data                                    0x200000c6   Section        2  sys_arch.o(.data)
    s_nextthread                             0x200000c6   Data           2  sys_arch.o(.data)
    .data                                    0x200000c8   Section       16  stm32f4xx_rcc.o(.data)
    APBAHBPrescTable                         0x200000c8   Data          16  stm32f4xx_rcc.o(.data)
    .data                                    0x200000d8   Section       12  stm32f4x7_eth.o(.data)
    .data                                    0x200000e4   Section        4  port.o(.data)
    uxCriticalNesting                        0x200000e4   Data           4  port.o(.data)
    .data                                    0x200000e8   Section       60  tasks.o(.data)
    uxTasksDeleted                           0x200000ec   Data           4  tasks.o(.data)
    uxCurrentNumberOfTasks                   0x200000f0   Data           4  tasks.o(.data)
    xTickCount                               0x200000f4   Data           4  tasks.o(.data)
    uxTopUsedPriority                        0x200000f8   Data           4  tasks.o(.data)
    uxTopReadyPriority                       0x200000fc   Data           4  tasks.o(.data)
    xSchedulerRunning                        0x20000100   Data           4  tasks.o(.data)
    uxSchedulerSuspended                     0x20000104   Data           4  tasks.o(.data)
    uxMissedTicks                            0x20000108   Data           4  tasks.o(.data)
    xMissedYield                             0x2000010c   Data           4  tasks.o(.data)
    xNumOfOverflows                          0x20000110   Data           4  tasks.o(.data)
    uxTaskNumber                             0x20000114   Data           4  tasks.o(.data)
    xNextTaskUnblockTime                     0x20000118   Data           4  tasks.o(.data)
    pxDelayedTaskList                        0x2000011c   Data           4  tasks.o(.data)
    pxOverflowDelayedTaskList                0x20000120   Data           4  tasks.o(.data)
    .data                                    0x20000124   Section       16  heap_4.o(.data)
    pxEnd                                    0x20000124   Data           4  heap_4.o(.data)
    xFreeBytesRemaining                      0x20000128   Data           4  heap_4.o(.data)
    xStart                                   0x2000012c   Data           8  heap_4.o(.data)
    .data                                    0x20000134   Section       24  sdio_sd.o(.data)
    CardType                                 0x20000138   Data           4  sdio_sd.o(.data)
    RCA                                      0x2000013c   Data           4  sdio_sd.o(.data)
    .data                                    0x2000014c   Section        8  ff.o(.data)
    Fsid                                     0x2000014c   Data           2  ff.o(.data)
    FatFs                                    0x20000150   Data           4  ff.o(.data)
    .data                                    0x20000154   Section       12  main.o(.data)
    .data                                    0x20000160   Section        1  stm32f4xx_it.o(.data)
    tc                                       0x20000160   Data           1  stm32f4xx_it.o(.data)
    .data                                    0x20000164   Section        8  stm32f4x7_eth_bsp.o(.data)
    .data                                    0x2000016c   Section        4  netconf.o(.data)
    IP4_ADDR_IN_cnf                          0x2000016c   Data           4  netconf.o(.data)
    .data                                    0x20000170   Section       64  algbloc.o(.data)
    program                                  0x20000174   Data           4  algbloc.o(.data)
    .data                                    0x200001b0   Section       20  udp_server.o(.data)
    errt                                     0x200001b0   Data           1  udp_server.o(.data)
    .data                                    0x200001c4   Section        8  ftp_server.o(.data)
    ftp_path                                 0x200001c4   Data           4  ftp_server.o(.data)
    buffer_ftp                               0x200001c8   Data           4  ftp_server.o(.data)
    .data                                    0x200001cc   Section        4  errno.o(.data)
    _errno                                   0x200001cc   Data           4  errno.o(.data)
    .bss                                     0x200001d0   Section       96  sockets.o(.bss)
    sockets                                  0x200001d0   Data          96  sockets.o(.bss)
    .bss                                     0x20000230   Section       50  dhcp.o(.bss)
    .bss                                     0x20000262   Section    20500  mem.o(.bss)
    .bss                                     0x20005278   Section    23303  memp.o(.bss)
    memp_tab                                 0x20005278   Data          48  memp.o(.bss)
    memp_memory                              0x200052a8   Data       23255  memp.o(.bss)
    .bss                                     0x2000ad80   Section      372  stats.o(.bss)
    .bss                                     0x2000aef4   Section       20  tcp_in.o(.bss)
    inseg                                    0x2000aef4   Data          20  tcp_in.o(.bss)
    .bss                                     0x2000af08   Section       16  ip_addr.o(.bss)
    str                                      0x2000af08   Data          16  ip_addr.o(.bss)
    .bss                                     0x2000af18   Section      200  etharp.o(.bss)
    arp_table                                0x2000af18   Data         200  etharp.o(.bss)
    .bss                                     0x2000afe0   Section      128  stm32f4x7_eth.o(.bss)
    .bss                                     0x2000b060   Section      128  stm32f4x7_eth.o(.bss)
    .bss                                     0x2000b0e0   Section     6096  stm32f4x7_eth.o(.bss)
    .bss                                     0x2000c8b0   Section     6096  stm32f4x7_eth.o(.bss)
    .bss                                     0x2000e080   Section       12  stm32f4x7_eth.o(.bss)
    .bss                                     0x2000e08c   Section      328  tasks.o(.bss)
    pcStatusString                           0x2000e08c   Data          46  tasks.o(.bss)
    pxReadyTasksLists                        0x2000e0bc   Data         200  tasks.o(.bss)
    xDelayedTaskList1                        0x2000e184   Data          20  tasks.o(.bss)
    xDelayedTaskList2                        0x2000e198   Data          20  tasks.o(.bss)
    xPendingReadyList                        0x2000e1ac   Data          20  tasks.o(.bss)
    xTasksWaitingTermination                 0x2000e1c0   Data          20  tasks.o(.bss)
    .bss                                     0x2000e1d4   Section       64  queue.o(.bss)
    .bss                                     0x2000e218   Section    40960  heap_4.o(.bss)
    xHeap                                    0x2000e218   Data       40960  heap_4.o(.bss)
    .bss                                     0x20018218   Section      204  sdio_sd.o(.bss)
    CSD_Tab                                  0x20018218   Data          16  sdio_sd.o(.bss)
    CID_Tab                                  0x20018228   Data          16  sdio_sd.o(.bss)
    SDSTATUS_Tab                             0x20018238   Data          16  sdio_sd.o(.bss)
    .bss                                     0x200182e4   Section      188  stm32f4x7_eth_bsp.o(.bss)
    .bss                                     0x200183a0   Section       56  netconf.o(.bss)
    .bss                                     0x200183d8   Section    11516  algbloc.o(.bss)
    .bss                                     0x2001b0d4   Section       20  udp_server.o(.bss)
    .bss                                     0x2001b0e8   Section      260  usart1.o(.bss)
    .bss                                     0x2001b1ec   Section      260  usart2.o(.bss)
    .bss                                     0x2001b2f0   Section      260  usart3.o(.bss)
    .bss                                     0x2001b3f4   Section      260  usart4.o(.bss)
    STACK                                    0x2001b4f8   Section     2048  startup_stm32f427x.o(STACK)

    Global Symbols

    Symbol Name                              Value     Ov Type        Size  Object(Section)

    BuildAttributes$$THM_ISAv4$E$P$D$K$B$S$7EM$VFPi3$EXTD16$VFPS$VFMA$PE$A:L22UL41UL21$X:L11$S22US41US21$IEEE1$IW$USESV6$~STKCKD$USESV7$~SHL$OTIME$ROPI$IEEEJ$EBA8$MICROLIB$REQ8$PRES8$EABIv2 0x00000000   Number         0  anon$$obj.o ABSOLUTE
    __ARM_use_no_argv                        0x00000000   Number         0  main.o ABSOLUTE
    _printf_a                                0x00000000   Number         0  stubs.o ABSOLUTE
    _printf_c                                0x00000000   Number         0  stubs.o ABSOLUTE
    _printf_charcount                        0x00000000   Number         0  stubs.o ABSOLUTE
    _printf_d                                0x00000000   Number         0  stubs.o ABSOLUTE
    _printf_e                                0x00000000   Number         0  stubs.o ABSOLUTE
    _printf_f                                0x00000000   Number         0  stubs.o ABSOLUTE
    _printf_flags                            0x00000000   Number         0  stubs.o ABSOLUTE
    _printf_fp_dec                           0x00000000   Number         0  stubs.o ABSOLUTE
    _printf_fp_hex                           0x00000000   Number         0  stubs.o ABSOLUTE
    _printf_g                                0x00000000   Number         0  stubs.o ABSOLUTE
    _printf_i                                0x00000000   Number         0  stubs.o ABSOLUTE
    _printf_int_dec                          0x00000000   Number         0  stubs.o ABSOLUTE
    _printf_l                                0x00000000   Number         0  stubs.o ABSOLUTE
    _printf_lc                               0x00000000   Number         0  stubs.o ABSOLUTE
    _printf_ll                               0x00000000   Number         0  stubs.o ABSOLUTE
    _printf_lld                              0x00000000   Number         0  stubs.o ABSOLUTE
    _printf_lli                              0x00000000   Number         0  stubs.o ABSOLUTE
    _printf_llo                              0x00000000   Number         0  stubs.o ABSOLUTE
    _printf_llu                              0x00000000   Number         0  stubs.o ABSOLUTE
    _printf_llx                              0x00000000   Number         0  stubs.o ABSOLUTE
    _printf_longlong_dec                     0x00000000   Number         0  stubs.o ABSOLUTE
    _printf_longlong_hex                     0x00000000   Number         0  stubs.o ABSOLUTE
    _printf_longlong_oct                     0x00000000   Number         0  stubs.o ABSOLUTE
    _printf_ls                               0x00000000   Number         0  stubs.o ABSOLUTE
    _printf_mbtowc                           0x00000000   Number         0  stubs.o ABSOLUTE
    _printf_n                                0x00000000   Number         0  stubs.o ABSOLUTE
    _printf_o                                0x00000000   Number         0  stubs.o ABSOLUTE
    _printf_p                                0x00000000   Number         0  stubs.o ABSOLUTE
    _printf_percent                          0x00000000   Number         0  stubs.o ABSOLUTE
    _printf_pre_padding                      0x00000000   Number         0  stubs.o ABSOLUTE
    _printf_return_value                     0x00000000   Number         0  stubs.o ABSOLUTE
    _printf_s                                0x00000000   Number         0  stubs.o ABSOLUTE
    _printf_sizespec                         0x00000000   Number         0  stubs.o ABSOLUTE
    _printf_str                              0x00000000   Number         0  stubs.o ABSOLUTE
    _printf_truncate_signed                  0x00000000   Number         0  stubs.o ABSOLUTE
    _printf_truncate_unsigned                0x00000000   Number         0  stubs.o ABSOLUTE
    _printf_u                                0x00000000   Number         0  stubs.o ABSOLUTE
    _printf_wc                               0x00000000   Number         0  stubs.o ABSOLUTE
    _printf_wctomb                           0x00000000   Number         0  stubs.o ABSOLUTE
    _printf_widthprec                        0x00000000   Number         0  stubs.o ABSOLUTE
    _printf_x                                0x00000000   Number         0  stubs.o ABSOLUTE
    __cpp_initialize__aeabi_                  - Undefined Weak Reference
    __cxa_finalize                            - Undefined Weak Reference
    _clock_init                               - Undefined Weak Reference
    _microlib_exit                            - Undefined Weak Reference
    __Vectors_Size                           0x0000019c   Number         0  startup_stm32f427x.o ABSOLUTE
    __Vectors                                0x08000000   Data           4  startup_stm32f427x.o(RESET)
    __Vectors_End                            0x0800019c   Data           0  startup_stm32f427x.o(RESET)
    __main                                   0x0800019d   Thumb Code     0  entry.o(.ARM.Collect$$$$00000000)
    _main_stk                                0x0800019d   Thumb Code     0  entry2.o(.ARM.Collect$$$$00000001)
    _main_scatterload                        0x080001a1   Thumb Code     0  entry5.o(.ARM.Collect$$$$00000004)
    __main_after_scatterload                 0x080001a5   Thumb Code     0  entry5.o(.ARM.Collect$$$$00000004)
    _main_clock                              0x080001a5   Thumb Code     0  entry7b.o(.ARM.Collect$$$$00000008)
    _main_cpp_init                           0x080001a5   Thumb Code     0  entry8b.o(.ARM.Collect$$$$0000000A)
    _main_init                               0x080001a5   Thumb Code     0  entry9a.o(.ARM.Collect$$$$0000000B)
    __rt_final_cpp                           0x080001ad   Thumb Code     0  entry10a.o(.ARM.Collect$$$$0000000D)
    __rt_final_exit                          0x080001ad   Thumb Code     0  entry11a.o(.ARM.Collect$$$$0000000F)
    SVC_Handler                              0x080001b1   Thumb Code    24  port.o(.emb_text)
    __asm___6_port_c_39a90d8d__prvStartFirstTask 0x080001cd   Thumb Code    16  port.o(.emb_text)
    __asm___6_port_c_39a90d8d__prvEnableVFP  0x080001e1   Thumb Code    16  port.o(.emb_text)
    PendSV_Handler                           0x080001f5   Thumb Code    76  port.o(.emb_text)
    ulPortSetInterruptMask                   0x08000245   Thumb Code    14  port.o(.emb_text)
    vPortClearInterruptMask                  0x08000253   Thumb Code     6  port.o(.emb_text)
    SystemInit                               0x08000633   Thumb Code   128  system_stm32f4xx.o(.text)
    SystemCoreClockUpdate                    0x080006b3   Thumb Code   108  system_stm32f4xx.o(.text)
    Reset_Handler                            0x08000739   Thumb Code     8  startup_stm32f427x.o(.text)
    ADC_IRQHandler                           0x08000753   Thumb Code     0  startup_stm32f427x.o(.text)
    CAN1_RX0_IRQHandler                      0x08000753   Thumb Code     0  startup_stm32f427x.o(.text)
    CAN1_RX1_IRQHandler                      0x08000753   Thumb Code     0  startup_stm32f427x.o(.text)
    CAN1_SCE_IRQHandler                      0x08000753   Thumb Code     0  startup_stm32f427x.o(.text)
    CAN1_TX_IRQHandler                       0x08000753   Thumb Code     0  startup_stm32f427x.o(.text)
    CAN2_RX0_IRQHandler                      0x08000753   Thumb Code     0  startup_stm32f427x.o(.text)
    CAN2_RX1_IRQHandler                      0x08000753   Thumb Code     0  startup_stm32f427x.o(.text)
    CAN2_SCE_IRQHandler                      0x08000753   Thumb Code     0  startup_stm32f427x.o(.text)
    CAN2_TX_IRQHandler                       0x08000753   Thumb Code     0  startup_stm32f427x.o(.text)
    CRYP_IRQHandler                          0x08000753   Thumb Code     0  startup_stm32f427x.o(.text)
    DCMI_IRQHandler                          0x08000753   Thumb Code     0  startup_stm32f427x.o(.text)
    DMA1_Stream0_IRQHandler                  0x08000753   Thumb Code     0  startup_stm32f427x.o(.text)
    DMA1_Stream2_IRQHandler                  0x08000753   Thumb Code     0  startup_stm32f427x.o(.text)
    DMA1_Stream3_IRQHandler                  0x08000753   Thumb Code     0  startup_stm32f427x.o(.text)
    DMA1_Stream4_IRQHandler                  0x08000753   Thumb Code     0  startup_stm32f427x.o(.text)
    DMA1_Stream5_IRQHandler                  0x08000753   Thumb Code     0  startup_stm32f427x.o(.text)
    DMA1_Stream7_IRQHandler                  0x08000753   Thumb Code     0  startup_stm32f427x.o(.text)
    DMA2_Stream0_IRQHandler                  0x08000753   Thumb Code     0  startup_stm32f427x.o(.text)
    DMA2_Stream1_IRQHandler                  0x08000753   Thumb Code     0  startup_stm32f427x.o(.text)
    DMA2_Stream2_IRQHandler                  0x08000753   Thumb Code     0  startup_stm32f427x.o(.text)
    DMA2_Stream4_IRQHandler                  0x08000753   Thumb Code     0  startup_stm32f427x.o(.text)
    DMA2_Stream5_IRQHandler                  0x08000753   Thumb Code     0  startup_stm32f427x.o(.text)
    DMA2_Stream6_IRQHandler                  0x08000753   Thumb Code     0  startup_stm32f427x.o(.text)
    ETH_WKUP_IRQHandler                      0x08000753   Thumb Code     0  startup_stm32f427x.o(.text)
    EXTI0_IRQHandler                         0x08000753   Thumb Code     0  startup_stm32f427x.o(.text)
    EXTI1_IRQHandler                         0x08000753   Thumb Code     0  startup_stm32f427x.o(.text)
    EXTI2_IRQHandler                         0x08000753   Thumb Code     0  startup_stm32f427x.o(.text)
    EXTI3_IRQHandler                         0x08000753   Thumb Code     0  startup_stm32f427x.o(.text)
    EXTI4_IRQHandler                         0x08000753   Thumb Code     0  startup_stm32f427x.o(.text)
    EXTI9_5_IRQHandler                       0x08000753   Thumb Code     0  startup_stm32f427x.o(.text)
    FLASH_IRQHandler                         0x08000753   Thumb Code     0  startup_stm32f427x.o(.text)
    FPU_IRQHandler                           0x08000753   Thumb Code     0  startup_stm32f427x.o(.text)
    FSMC_IRQHandler                          0x08000753   Thumb Code     0  startup_stm32f427x.o(.text)
    HASH_RNG_IRQHandler                      0x08000753   Thumb Code     0  startup_stm32f427x.o(.text)
    I2C1_ER_IRQHandler                       0x08000753   Thumb Code     0  startup_stm32f427x.o(.text)
    I2C1_EV_IRQHandler                       0x08000753   Thumb Code     0  startup_stm32f427x.o(.text)
    I2C2_ER_IRQHandler                       0x08000753   Thumb Code     0  startup_stm32f427x.o(.text)
    I2C2_EV_IRQHandler                       0x08000753   Thumb Code     0  startup_stm32f427x.o(.text)
    I2C3_ER_IRQHandler                       0x08000753   Thumb Code     0  startup_stm32f427x.o(.text)
    I2C3_EV_IRQHandler                       0x08000753   Thumb Code     0  startup_stm32f427x.o(.text)
    OTG_FS_IRQHandler                        0x08000753   Thumb Code     0  startup_stm32f427x.o(.text)
    OTG_FS_WKUP_IRQHandler                   0x08000753   Thumb Code     0  startup_stm32f427x.o(.text)
    OTG_HS_EP1_IN_IRQHandler                 0x08000753   Thumb Code     0  startup_stm32f427x.o(.text)
    OTG_HS_EP1_OUT_IRQHandler                0x08000753   Thumb Code     0  startup_stm32f427x.o(.text)
    OTG_HS_IRQHandler                        0x08000753   Thumb Code     0  startup_stm32f427x.o(.text)
    OTG_HS_WKUP_IRQHandler                   0x08000753   Thumb Code     0  startup_stm32f427x.o(.text)
    PVD_IRQHandler                           0x08000753   Thumb Code     0  startup_stm32f427x.o(.text)
    RCC_IRQHandler                           0x08000753   Thumb Code     0  startup_stm32f427x.o(.text)
    RTC_Alarm_IRQHandler                     0x08000753   Thumb Code     0  startup_stm32f427x.o(.text)
    RTC_WKUP_IRQHandler                      0x08000753   Thumb Code     0  startup_stm32f427x.o(.text)
    SPI1_IRQHandler                          0x08000753   Thumb Code     0  startup_stm32f427x.o(.text)
    SPI2_IRQHandler                          0x08000753   Thumb Code     0  startup_stm32f427x.o(.text)
    SPI3_IRQHandler                          0x08000753   Thumb Code     0  startup_stm32f427x.o(.text)
    SPI4_IRQHandler                          0x08000753   Thumb Code     0  startup_stm32f427x.o(.text)
    SPI5_IRQHandler                          0x08000753   Thumb Code     0  startup_stm32f427x.o(.text)
    SPI6_IRQHandler                          0x08000753   Thumb Code     0  startup_stm32f427x.o(.text)
    TAMP_STAMP_IRQHandler                    0x08000753   Thumb Code     0  startup_stm32f427x.o(.text)
    TIM1_BRK_TIM9_IRQHandler                 0x08000753   Thumb Code     0  startup_stm32f427x.o(.text)
    TIM1_CC_IRQHandler                       0x08000753   Thumb Code     0  startup_stm32f427x.o(.text)
    TIM1_TRG_COM_TIM11_IRQHandler            0x08000753   Thumb Code     0  startup_stm32f427x.o(.text)
    TIM1_UP_TIM10_IRQHandler                 0x08000753   Thumb Code     0  startup_stm32f427x.o(.text)
    TIM2_IRQHandler                          0x08000753   Thumb Code     0  startup_stm32f427x.o(.text)
    TIM3_IRQHandler                          0x08000753   Thumb Code     0  startup_stm32f427x.o(.text)
    TIM4_IRQHandler                          0x08000753   Thumb Code     0  startup_stm32f427x.o(.text)
    TIM5_IRQHandler                          0x08000753   Thumb Code     0  startup_stm32f427x.o(.text)
    TIM7_IRQHandler                          0x08000753   Thumb Code     0  startup_stm32f427x.o(.text)
    TIM8_BRK_TIM12_IRQHandler                0x08000753   Thumb Code     0  startup_stm32f427x.o(.text)
    TIM8_CC_IRQHandler                       0x08000753   Thumb Code     0  startup_stm32f427x.o(.text)
    TIM8_TRG_COM_TIM14_IRQHandler            0x08000753   Thumb Code     0  startup_stm32f427x.o(.text)
    TIM8_UP_TIM13_IRQHandler                 0x08000753   Thumb Code     0  startup_stm32f427x.o(.text)
    UART4_IRQHandler                         0x08000753   Thumb Code     0  startup_stm32f427x.o(.text)
    UART5_IRQHandler                         0x08000753   Thumb Code     0  startup_stm32f427x.o(.text)
    UART8_IRQHandler                         0x08000753   Thumb Code     0  startup_stm32f427x.o(.text)
    USART3_IRQHandler                        0x08000753   Thumb Code     0  startup_stm32f427x.o(.text)
    WWDG_IRQHandler                          0x08000753   Thumb Code     0  startup_stm32f427x.o(.text)
    netconn_new_with_proto_and_callback      0x0800075d   Thumb Code    92  api_lib.o(.text)
    netconn_delete                           0x080007b9   Thumb Code    32  api_lib.o(.text)
    netconn_getaddr                          0x080007d9   Thumb Code    68  api_lib.o(.text)
    netconn_bind                             0x0800081d   Thumb Code    58  api_lib.o(.text)
    netconn_connect                          0x08000857   Thumb Code    58  api_lib.o(.text)
    netconn_disconnect                       0x08000891   Thumb Code    52  api_lib.o(.text)
    netconn_listen_with_backlog              0x080008c5   Thumb Code    52  api_lib.o(.text)
    netconn_accept                           0x080008f9   Thumb Code   122  api_lib.o(.text)
    netconn_recv_tcp_pbuf                    0x08000a3b   Thumb Code    16  api_lib.o(.text)
    netconn_recv                             0x08000a4b   Thumb Code   134  api_lib.o(.text)
    netconn_recved                           0x08000ad1   Thumb Code    40  api_lib.o(.text)
    netconn_send                             0x08000af9   Thumb Code    54  api_lib.o(.text)
    netconn_sendto                           0x08000b2f   Thumb Code    18  api_lib.o(.text)
    netconn_write_partly                     0x08000b41   Thumb Code   172  api_lib.o(.text)
    netconn_close                            0x08000c25   Thumb Code     4  api_lib.o(.text)
    netconn_shutdown                         0x08000c29   Thumb Code    12  api_lib.o(.text)
    netconn_free                             0x080010fd   Thumb Code    46  api_msg.o(.text)
    netconn_alloc                            0x0800112b   Thumb Code   124  api_msg.o(.text)
    do_newconn                               0x08001243   Thumb Code    32  api_msg.o(.text)
    do_delconn                               0x080012f3   Thumb Code   146  api_msg.o(.text)
    do_bind                                  0x08001385   Thumb Code    92  api_msg.o(.text)
    do_connect                               0x0800144b   Thumb Code   170  api_msg.o(.text)
    do_disconnect                            0x080014f5   Thumb Code    42  api_msg.o(.text)
    do_listen                                0x0800151f   Thumb Code   170  api_msg.o(.text)
    do_send                                  0x080015c9   Thumb Code   128  api_msg.o(.text)
    do_recv                                  0x08001649   Thumb Code    66  api_msg.o(.text)
    do_write                                 0x0800168b   Thumb Code    66  api_msg.o(.text)
    do_getaddr                               0x080016cd   Thumb Code   108  api_msg.o(.text)
    do_close                                 0x08001739   Thumb Code    82  api_msg.o(.text)
    netbuf_new                               0x08001811   Thumb Code    24  netbuf.o(.text)
    netbuf_delete                            0x08001829   Thumb Code    34  netbuf.o(.text)
    netbuf_alloc                             0x0800184b   Thumb Code    42  netbuf.o(.text)
    netbuf_free                              0x08001875   Thumb Code    22  netbuf.o(.text)
    netbuf_ref                               0x0800188b   Thumb Code    64  netbuf.o(.text)
    netbuf_chain                             0x080018cb   Thumb Code    38  netbuf.o(.text)
    netbuf_data                              0x080018f1   Thumb Code    38  netbuf.o(.text)
    netbuf_next                              0x08001917   Thumb Code    30  netbuf.o(.text)
    netbuf_first                             0x08001935   Thumb Code    10  netbuf.o(.text)
    lwip_socket_init                         0x08001941   Thumb Code     2  sockets.o(.text)
    lwip_accept                              0x080019a3   Thumb Code   268  sockets.o(.text)
    lwip_bind                                0x08001aaf   Thumb Code    88  sockets.o(.text)
    lwip_close                               0x08001b07   Thumb Code    78  sockets.o(.text)
    lwip_connect                             0x08001b55   Thumb Code    88  sockets.o(.text)
    lwip_listen                              0x08001bad   Thumb Code    86  sockets.o(.text)
    lwip_recvfrom                            0x08001c03   Thumb Code   434  sockets.o(.text)
    lwip_read                                0x08001db5   Thumb Code    14  sockets.o(.text)
    lwip_recv                                0x08001dc3   Thumb Code    14  sockets.o(.text)
    lwip_sendto                              0x08001dd1   Thumb Code   172  sockets.o(.text)
    lwip_send                                0x08001e7d   Thumb Code   116  sockets.o(.text)
    lwip_socket                              0x08002011   Thumb Code   104  sockets.o(.text)
    lwip_write                               0x08002079   Thumb Code     4  sockets.o(.text)
    lwip_select                              0x0800217d   Thumb Code   576  sockets.o(.text)
    lwip_shutdown                            0x080023bd   Thumb Code   108  sockets.o(.text)
    lwip_getpeername                         0x08002493   Thumb Code     4  sockets.o(.text)
    lwip_getsockname                         0x08002497   Thumb Code     4  sockets.o(.text)
    lwip_getsockopt                          0x08002587   Thumb Code   238  sockets.o(.text)
    lwip_setsockopt                          0x08002741   Thumb Code   212  sockets.o(.text)
    lwip_ioctl                               0x08002815   Thumb Code    68  sockets.o(.text)
    lwip_fcntl                               0x08002859   Thumb Code    70  sockets.o(.text)
    tcpip_input                              0x08002957   Thumb Code    74  tcpip.o(.text)
    tcpip_callback_with_block                0x080029a1   Thumb Code    92  tcpip.o(.text)
    tcpip_timeout                            0x080029fd   Thumb Code    62  tcpip.o(.text)
    tcpip_untimeout                          0x08002a3b   Thumb Code    58  tcpip.o(.text)
    tcpip_apimsg                             0x08002a75   Thumb Code    62  tcpip.o(.text)
    tcpip_callbackmsg_new                    0x08002ab3   Thumb Code    26  tcpip.o(.text)
    tcpip_callbackmsg_delete                 0x08002acd   Thumb Code     8  tcpip.o(.text)
    tcpip_trycallback                        0x08002ad5   Thumb Code    34  tcpip.o(.text)
    tcpip_init                               0x08002af7   Thumb Code    44  tcpip.o(.text)
    pbuf_free_callback                       0x08002b27   Thumb Code     8  tcpip.o(.text)
    mem_free_callback                        0x08002b2f   Thumb Code     8  tcpip.o(.text)
    lwip_htons                               0x08002b51   Thumb Code     4  def.o(.text)
    lwip_ntohs                               0x08002b55   Thumb Code     4  def.o(.text)
    lwip_htonl                               0x08002b59   Thumb Code     4  def.o(.text)
    lwip_ntohl                               0x08002b5d   Thumb Code     4  def.o(.text)
    dhcp_renew                               0x08002eab   Thumb Code   132  dhcp.o(.text)
    dhcp_coarse_tmr                          0x08002fbd   Thumb Code    90  dhcp.o(.text)
    dhcp_release                             0x080030b3   Thumb Code   160  dhcp.o(.text)
    dhcp_fine_tmr                            0x08003213   Thumb Code    46  dhcp.o(.text)
    dhcp_set_struct                          0x08003241   Thumb Code    18  dhcp.o(.text)
    dhcp_cleanup                             0x08003253   Thumb Code    20  dhcp.o(.text)
    dhcp_stop                                0x08003267   Thumb Code    48  dhcp.o(.text)
    dhcp_start                               0x080035a1   Thumb Code   154  dhcp.o(.text)
    dhcp_inform                              0x0800363b   Thumb Code   144  dhcp.o(.text)
    dhcp_network_changed                     0x080036cb   Thumb Code    68  dhcp.o(.text)
    dhcp_arp_reply                           0x0800370f   Thumb Code    30  dhcp.o(.text)
    lwip_init                                0x08003905   Thumb Code    42  init.o(.text)
    mem_init                                 0x08003931   Thumb Code    58  mem.o(.text)
    mem_free                                 0x0800396b   Thumb Code   102  mem.o(.text)
    mem_trim                                 0x080039d1   Thumb Code   264  mem.o(.text)
    mem_malloc                               0x08003ad9   Thumb Code   266  mem.o(.text)
    mem_calloc                               0x08003be3   Thumb Code    26  mem.o(.text)
    memp_init                                0x08003c59   Thumb Code   106  memp.o(.text)
    memp_malloc                              0x08003cc3   Thumb Code    84  memp.o(.text)
    memp_free                                0x08003d17   Thumb Code    52  memp.o(.text)
    netif_init                               0x08003d59   Thumb Code     2  netif.o(.text)
    netif_set_gw                             0x08003d5b   Thumb Code     8  netif.o(.text)
    netif_set_netmask                        0x08003d63   Thumb Code     8  netif.o(.text)
    netif_set_ipaddr                         0x08003d6b   Thumb Code    96  netif.o(.text)
    netif_set_addr                           0x08003dcb   Thumb Code    30  netif.o(.text)
    netif_add                                0x08003de9   Thumb Code    72  netif.o(.text)
    netif_set_default                        0x08003e31   Thumb Code     6  netif.o(.text)
    netif_set_down                           0x08003e37   Thumb Code    26  netif.o(.text)
    netif_remove                             0x08003e51   Thumb Code    68  netif.o(.text)
    netif_find                               0x08003e95   Thumb Code    60  netif.o(.text)
    netif_set_up                             0x08003ed1   Thumb Code    32  netif.o(.text)
    netif_set_link_up                        0x08003ef1   Thumb Code    66  netif.o(.text)
    netif_set_link_down                      0x08003f33   Thumb Code    26  netif.o(.text)
    netif_set_link_callback                  0x08003f4d   Thumb Code     8  netif.o(.text)
    pbuf_free                                0x08003f61   Thumb Code    82  pbuf.o(.text)
    pbuf_alloc                               0x08003fb3   Thumb Code   280  pbuf.o(.text)
    pbuf_realloc                             0x080040cb   Thumb Code    78  pbuf.o(.text)
    pbuf_header                              0x08004119   Thumb Code    96  pbuf.o(.text)
    pbuf_clen                                0x08004179   Thumb Code    18  pbuf.o(.text)
    pbuf_ref                                 0x0800418b   Thumb Code    26  pbuf.o(.text)
    pbuf_cat                                 0x080041a5   Thumb Code    40  pbuf.o(.text)
    pbuf_chain                               0x080041cd   Thumb Code    16  pbuf.o(.text)
    pbuf_dechain                             0x080041dd   Thumb Code    38  pbuf.o(.text)
    pbuf_copy                                0x08004203   Thumb Code   154  pbuf.o(.text)
    pbuf_copy_partial                        0x0800429d   Thumb Code   102  pbuf.o(.text)
    pbuf_take                                0x08004303   Thumb Code    78  pbuf.o(.text)
    pbuf_coalesce                            0x08004351   Thumb Code    44  pbuf.o(.text)
    pbuf_get_at                              0x0800437d   Thumb Code    24  pbuf.o(.text)
    pbuf_memcmp                              0x08004395   Thumb Code    68  pbuf.o(.text)
    pbuf_memfind                             0x080043d9   Thumb Code    56  pbuf.o(.text)
    pbuf_strstr                              0x08004411   Thumb Code    54  pbuf.o(.text)
    raw_input                                0x08004449   Thumb Code   104  raw.o(.text)
    raw_bind                                 0x080044b1   Thumb Code    10  raw.o(.text)
    raw_connect                              0x080044bb   Thumb Code    10  raw.o(.text)
    raw_recv                                 0x080044c5   Thumb Code     6  raw.o(.text)
    raw_sendto                               0x080044cb   Thumb Code   144  raw.o(.text)
    raw_send                                 0x0800455b   Thumb Code     4  raw.o(.text)
    raw_remove                               0x0800455f   Thumb Code    40  raw.o(.text)
    raw_new                                  0x08004587   Thumb Code    38  raw.o(.text)
    stats_init                               0x080045b9   Thumb Code    48  stats.o(.text)
    tcp_init                                 0x080045f5   Thumb Code     2  tcp.o(.text)
    tcp_seg_free                             0x080045f7   Thumb Code    28  tcp.o(.text)
    tcp_segs_free                            0x08004613   Thumb Code    18  tcp.o(.text)
    tcp_pcb_purge                            0x08004625   Thumb Code    58  tcp.o(.text)
    tcp_slowtmr                              0x0800465f   Thumb Code   590  tcp.o(.text)
    tcp_pcb_remove                           0x080048ad   Thumb Code    82  tcp.o(.text)
    tcp_close                                0x08004a1f   Thumb Code    18  tcp.o(.text)
    tcp_update_rcv_ann_wnd                   0x08004a31   Thumb Code    70  tcp.o(.text)
    tcp_recved                               0x08004a77   Thumb Code    56  tcp.o(.text)
    tcp_recv_null                            0x08004aaf   Thumb Code    34  tcp.o(.text)
    tcp_process_refused_data                 0x08004ad1   Thumb Code   102  tcp.o(.text)
    tcp_fasttmr                              0x08004b37   Thumb Code    86  tcp.o(.text)
    tcp_tmr                                  0x08004b8d   Thumb Code    26  tcp.o(.text)
    tcp_shutdown                             0x08004ba7   Thumb Code    76  tcp.o(.text)
    tcp_abandon                              0x08004bf3   Thumb Code   134  tcp.o(.text)
    tcp_abort                                0x08004c79   Thumb Code     4  tcp.o(.text)
    tcp_bind                                 0x08004ccf   Thumb Code   120  tcp.o(.text)
    tcp_listen_with_backlog                  0x08004d4d   Thumb Code   126  tcp.o(.text)
    tcp_eff_send_mss                         0x08004dcb   Thumb Code    32  tcp.o(.text)
    tcp_next_iss                             0x08004deb   Thumb Code    12  tcp.o(.text)
    tcp_connect                              0x08004df7   Thumb Code   238  tcp.o(.text)
    tcp_setprio                              0x08004ee5   Thumb Code     4  tcp.o(.text)
    tcp_alloc                                0x08004ee9   Thumb Code   278  tcp.o(.text)
    tcp_new                                  0x08004fff   Thumb Code     4  tcp.o(.text)
    tcp_arg                                  0x08005003   Thumb Code     4  tcp.o(.text)
    tcp_recv                                 0x08005007   Thumb Code     4  tcp.o(.text)
    tcp_sent                                 0x0800500b   Thumb Code     4  tcp.o(.text)
    tcp_err                                  0x0800500f   Thumb Code     6  tcp.o(.text)
    tcp_accept                               0x08005015   Thumb Code     4  tcp.o(.text)
    tcp_poll                                 0x08005019   Thumb Code    10  tcp.o(.text)
    tcp_debug_state_str                      0x08005023   Thumb Code     8  tcp.o(.text)
    tcp_input                                0x080058d1   Thumb Code   842  tcp_in.o(.text)
    tcp_enqueue_flags                        0x08005db1   Thumb Code   208  tcp_out.o(.text)
    tcp_send_fin                             0x08005e81   Thumb Code    66  tcp_out.o(.text)
    tcp_write                                0x08005f0f   Thumb Code   796  tcp_out.o(.text)
    tcp_send_empty_ack                       0x0800622b   Thumb Code    72  tcp_out.o(.text)
    tcp_output                               0x08006327   Thumb Code   390  tcp_out.o(.text)
    tcp_rst                                  0x080064ad   Thumb Code   128  tcp_out.o(.text)
    tcp_rexmit_rto                           0x0800652d   Thumb Code    44  tcp_out.o(.text)
    tcp_rexmit                               0x08006559   Thumb Code    80  tcp_out.o(.text)
    tcp_rexmit_fast                          0x080065a9   Thumb Code   100  tcp_out.o(.text)
    tcp_keepalive                            0x0800660d   Thumb Code    70  tcp_out.o(.text)
    tcp_zero_window_probe                    0x08006653   Thumb Code   148  tcp_out.o(.text)
    sys_timeout                              0x080066ed   Thumb Code    88  timers.o(.text)
    tcp_timer_needed                         0x0800676b   Thumb Code    34  timers.o(.text)
    sys_timeouts_init                        0x080067c9   Thumb Code    40  timers.o(.text)
    sys_untimeout                            0x080067f1   Thumb Code    68  timers.o(.text)
    sys_timeouts_mbox_fetch                  0x08006835   Thumb Code    92  timers.o(.text)
    udp_init                                 0x080068ad   Thumb Code     2  udp.o(.text)
    udp_input                                0x080068af   Thumb Code   426  udp.o(.text)
    udp_bind                                 0x08006a59   Thumb Code   148  udp.o(.text)
    udp_sendto_if                            0x08006aed   Thumb Code   192  udp.o(.text)
    udp_sendto                               0x08006bad   Thumb Code    50  udp.o(.text)
    udp_send                                 0x08006bdf   Thumb Code     6  udp.o(.text)
    udp_connect                              0x08006be5   Thumb Code    70  udp.o(.text)
    udp_disconnect                           0x08006c2b   Thumb Code    16  udp.o(.text)
    udp_recv                                 0x08006c3b   Thumb Code     6  udp.o(.text)
    udp_remove                               0x08006c41   Thumb Code    40  udp.o(.text)
    udp_new                                  0x08006c69   Thumb Code    26  udp.o(.text)
    icmp_input                               0x08006c95   Thumb Code   328  icmp.o(.text)
    icmp_dest_unreach                        0x08006ddd   Thumb Code     8  icmp.o(.text)
    inet_chksum_pseudo                       0x08006eb9   Thumb Code   136  inet_chksum.o(.text)
    inet_chksum_pseudo_partial               0x08006f41   Thumb Code   154  inet_chksum.o(.text)
    inet_chksum                              0x08006fdb   Thumb Code    12  inet_chksum.o(.text)
    inet_chksum_pbuf                         0x08006fe7   Thumb Code    72  inet_chksum.o(.text)
    ip_route                                 0x08007031   Thumb Code    62  ip.o(.text)
    ip_input                                 0x0800706f   Thumb Code   462  ip.o(.text)
    ip_output_if                             0x0800723d   Thumb Code   158  ip.o(.text)
    ip_output                                0x080072db   Thumb Code    60  ip.o(.text)
    ip4_addr_isbroadcast                     0x08007329   Thumb Code    46  ip_addr.o(.text)
    ip4_addr_netmask_valid                   0x08007357   Thumb Code    38  ip_addr.o(.text)
    ipaddr_aton                              0x0800737d   Thumb Code   248  ip_addr.o(.text)
    ipaddr_addr                              0x08007475   Thumb Code    20  ip_addr.o(.text)
    ipaddr_ntoa_r                            0x08007489   Thumb Code   116  ip_addr.o(.text)
    ipaddr_ntoa                              0x080074fd   Thumb Code     6  ip_addr.o(.text)
    etharp_tmr                               0x0800753b   Thumb Code    66  etharp.o(.text)
    etharp_cleanup_netif                     0x08007655   Thumb Code    42  etharp.o(.text)
    etharp_find_addr                         0x0800767f   Thumb Code    52  etharp.o(.text)
    etharp_request                           0x080077af   Thumb Code    34  etharp.o(.text)
    etharp_query                             0x0800780f   Thumb Code   276  etharp.o(.text)
    etharp_output                            0x08007923   Thumb Code   262  etharp.o(.text)
    ethernet_input                           0x08007a29   Thumb Code   156  etharp.o(.text)
    set_mac_addr_config                      0x08007c15   Thumb Code    28  ethernetif.o(.text)
    ethernetif_init                          0x08007e1d   Thumb Code    42  ethernetif.o(.text)
    sys_mbox_new                             0x08007f35   Thumb Code    56  sys_arch.o(.text)
    sys_mbox_free                            0x08007f6d   Thumb Code    42  sys_arch.o(.text)
    sys_mbox_post                            0x08007f97   Thumb Code    26  sys_arch.o(.text)
    sys_mbox_trypost                         0x08007fb1   Thumb Code    40  sys_arch.o(.text)
    sys_arch_mbox_fetch                      0x08007fd9   Thumb Code    80  sys_arch.o(.text)
    sys_arch_mbox_tryfetch                   0x08008029   Thumb Code    30  sys_arch.o(.text)
    sys_mbox_valid                           0x08008047   Thumb Code    10  sys_arch.o(.text)
    sys_mbox_set_invalid                     0x08008051   Thumb Code     6  sys_arch.o(.text)
    sys_sem_new                              0x08008057   Thumb Code    94  sys_arch.o(.text)
    sys_arch_sem_wait                        0x080080b5   Thumb Code    66  sys_arch.o(.text)
    sys_sem_signal                           0x080080f7   Thumb Code    12  sys_arch.o(.text)
    sys_sem_free                             0x08008103   Thumb Code    18  sys_arch.o(.text)
    sys_sem_valid                            0x08008115   Thumb Code    10  sys_arch.o(.text)
    sys_sem_set_invalid                      0x0800811f   Thumb Code     6  sys_arch.o(.text)
    sys_init                                 0x08008125   Thumb Code     8  sys_arch.o(.text)
    sys_thread_new                           0x0800812d   Thumb Code    56  sys_arch.o(.text)
    sys_arch_protect                         0x08008165   Thumb Code    10  sys_arch.o(.text)
    sys_arch_unprotect                       0x0800816f   Thumb Code     4  sys_arch.o(.text)
    sys_assert                               0x08008173   Thumb Code     6  sys_arch.o(.text)
    NVIC_PriorityGroupConfig                 0x08008181   Thumb Code    10  misc.o(.text)
    NVIC_Init                                0x0800818b   Thumb Code    96  misc.o(.text)
    NVIC_SetVectorTable                      0x080081eb   Thumb Code    14  misc.o(.text)
    NVIC_SystemLPConfig                      0x080081f9   Thumb Code    20  misc.o(.text)
    SysTick_CLKSourceConfig                  0x0800820d   Thumb Code    24  misc.o(.text)
    DMA_DeInit                               0x08008231   Thumb Code   272  stm32f4xx_dma.o(.text)
    DMA_Init                                 0x08008341   Thumb Code    80  stm32f4xx_dma.o(.text)
    DMA_StructInit                           0x08008391   Thumb Code    34  stm32f4xx_dma.o(.text)
    DMA_Cmd                                  0x080083b3   Thumb Code    20  stm32f4xx_dma.o(.text)
    DMA_PeriphIncOffsetSizeConfig            0x080083c7   Thumb Code    20  stm32f4xx_dma.o(.text)
    DMA_FlowControllerConfig                 0x080083db   Thumb Code    20  stm32f4xx_dma.o(.text)
    DMA_SetCurrDataCounter                   0x080083ef   Thumb Code     4  stm32f4xx_dma.o(.text)
    DMA_GetCurrDataCounter                   0x080083f3   Thumb Code     6  stm32f4xx_dma.o(.text)
    DMA_DoubleBufferModeConfig               0x080083f9   Thumb Code    22  stm32f4xx_dma.o(.text)
    DMA_DoubleBufferModeCmd                  0x0800840f   Thumb Code    20  stm32f4xx_dma.o(.text)
    DMA_MemoryTargetConfig                   0x08008423   Thumb Code    10  stm32f4xx_dma.o(.text)
    DMA_GetCurrentMemoryTarget               0x0800842d   Thumb Code    14  stm32f4xx_dma.o(.text)
    DMA_GetCmdStatus                         0x0800843b   Thumb Code    14  stm32f4xx_dma.o(.text)
    DMA_GetFIFOStatus                        0x08008449   Thumb Code     8  stm32f4xx_dma.o(.text)
    DMA_GetFlagStatus                        0x08008451   Thumb Code    42  stm32f4xx_dma.o(.text)
    DMA_ClearFlag                            0x0800847b   Thumb Code    34  stm32f4xx_dma.o(.text)
    DMA_ITConfig                             0x0800849d   Thumb Code    44  stm32f4xx_dma.o(.text)
    DMA_GetITStatus                          0x080084c9   Thumb Code    70  stm32f4xx_dma.o(.text)
    DMA_ClearITPendingBit                    0x0800850f   Thumb Code    34  stm32f4xx_dma.o(.text)
    EXTI_DeInit                              0x08008551   Thumb Code    28  stm32f4xx_exti.o(.text)
    EXTI_Init                                0x0800856d   Thumb Code   108  stm32f4xx_exti.o(.text)
    EXTI_StructInit                          0x080085d9   Thumb Code    14  stm32f4xx_exti.o(.text)
    EXTI_GenerateSWInterrupt                 0x080085e7   Thumb Code    12  stm32f4xx_exti.o(.text)
    EXTI_GetFlagStatus                       0x080085f3   Thumb Code    18  stm32f4xx_exti.o(.text)
    EXTI_ClearFlag                           0x08008605   Thumb Code     8  stm32f4xx_exti.o(.text)
    EXTI_GetITStatus                         0x0800860d   Thumb Code    28  stm32f4xx_exti.o(.text)
    EXTI_ClearITPendingBit                   0x08008629   Thumb Code     8  stm32f4xx_exti.o(.text)
    FMC_NORSRAMDeInit                        0x08008639   Thumb Code    40  stm32f4xx_fmc.o(.text)
    FMC_NORSRAMInit                          0x08008661   Thumb Code   256  stm32f4xx_fmc.o(.text)
    FMC_NORSRAMStructInit                    0x08008761   Thumb Code   102  stm32f4xx_fmc.o(.text)
    FMC_NORSRAMCmd                           0x080087c7   Thumb Code    26  stm32f4xx_fmc.o(.text)
    FMC_NANDDeInit                           0x080087e1   Thumb Code    40  stm32f4xx_fmc.o(.text)
    FMC_NANDInit                             0x08008809   Thumb Code   104  stm32f4xx_fmc.o(.text)
    FMC_NANDStructInit                       0x08008871   Thumb Code    54  stm32f4xx_fmc.o(.text)
    FMC_NANDCmd                              0x080088a7   Thumb Code    54  stm32f4xx_fmc.o(.text)
    FMC_NANDECCCmd                           0x080088dd   Thumb Code    54  stm32f4xx_fmc.o(.text)
    FMC_GetECC                               0x08008913   Thumb Code    18  stm32f4xx_fmc.o(.text)
    FMC_PCCARDDeInit                         0x08008925   Thumb Code    26  stm32f4xx_fmc.o(.text)
    FMC_PCCARDInit                           0x0800893f   Thumb Code   102  stm32f4xx_fmc.o(.text)
    FMC_PCCARDStructInit                     0x080089a5   Thumb Code    60  stm32f4xx_fmc.o(.text)
    FMC_PCCARDCmd                            0x080089e1   Thumb Code    28  stm32f4xx_fmc.o(.text)
    FMC_SDRAMDeInit                          0x080089fd   Thumb Code    42  stm32f4xx_fmc.o(.text)
    FMC_SDRAMInit                            0x08008a27   Thumb Code   224  stm32f4xx_fmc.o(.text)
    FMC_SDRAMStructInit                      0x08008b07   Thumb Code    60  stm32f4xx_fmc.o(.text)
    FMC_SDRAMCmdConfig                       0x08008b43   Thumb Code    34  stm32f4xx_fmc.o(.text)
    FMC_GetModeStatus                        0x08008b65   Thumb Code    26  stm32f4xx_fmc.o(.text)
    FMC_SetRefreshCount                      0x08008b7f   Thumb Code    18  stm32f4xx_fmc.o(.text)
    FMC_SetAutoRefresh_Number                0x08008b91   Thumb Code    18  stm32f4xx_fmc.o(.text)
    FMC_SDRAMWriteProtectionConfig           0x08008ba3   Thumb Code    32  stm32f4xx_fmc.o(.text)
    FMC_ITConfig                             0x08008bc3   Thumb Code   102  stm32f4xx_fmc.o(.text)
    FMC_GetFlagStatus                        0x08008c29   Thumb Code    54  stm32f4xx_fmc.o(.text)
    FMC_ClearFlag                            0x08008c5f   Thumb Code    56  stm32f4xx_fmc.o(.text)
    FMC_GetITStatus                          0x08008c97   Thumb Code    80  stm32f4xx_fmc.o(.text)
    FMC_ClearITPendingBit                    0x08008ce7   Thumb Code    62  stm32f4xx_fmc.o(.text)
    GPIO_DeInit                              0x08008d29   Thumb Code   192  stm32f4xx_gpio.o(.text)
    GPIO_Init                                0x08008de9   Thumb Code   162  stm32f4xx_gpio.o(.text)
    GPIO_StructInit                          0x08008e8b   Thumb Code    18  stm32f4xx_gpio.o(.text)
    GPIO_PinLockConfig                       0x08008e9d   Thumb Code    24  stm32f4xx_gpio.o(.text)
    GPIO_ReadInputDataBit                    0x08008eb5   Thumb Code    14  stm32f4xx_gpio.o(.text)
    GPIO_ReadInputData                       0x08008ec3   Thumb Code     6  stm32f4xx_gpio.o(.text)
    GPIO_ReadOutputDataBit                   0x08008ec9   Thumb Code    14  stm32f4xx_gpio.o(.text)
    GPIO_ReadOutputData                      0x08008ed7   Thumb Code     6  stm32f4xx_gpio.o(.text)
    GPIO_SetBits                             0x08008edd   Thumb Code     4  stm32f4xx_gpio.o(.text)
    GPIO_ResetBits                           0x08008ee1   Thumb Code     4  stm32f4xx_gpio.o(.text)
    GPIO_WriteBit                            0x08008ee5   Thumb Code    10  stm32f4xx_gpio.o(.text)
    GPIO_Write                               0x08008eef   Thumb Code     4  stm32f4xx_gpio.o(.text)
    GPIO_ToggleBits                          0x08008ef3   Thumb Code     8  stm32f4xx_gpio.o(.text)
    GPIO_PinAFConfig                         0x08008efb   Thumb Code    32  stm32f4xx_gpio.o(.text)
    RCC_DeInit                               0x08008f41   Thumb Code    68  stm32f4xx_rcc.o(.text)
    RCC_HSEConfig                            0x08008f85   Thumb Code    12  stm32f4xx_rcc.o(.text)
    RCC_GetFlagStatus                        0x08008f91   Thumb Code    46  stm32f4xx_rcc.o(.text)
    RCC_WaitForHSEStartUp                    0x08008fbf   Thumb Code    44  stm32f4xx_rcc.o(.text)
    RCC_AdjustHSICalibrationValue            0x08008feb   Thumb Code    16  stm32f4xx_rcc.o(.text)
    RCC_HSICmd                               0x08008ffb   Thumb Code     6  stm32f4xx_rcc.o(.text)
    RCC_LSEConfig                            0x08009001   Thumb Code    24  stm32f4xx_rcc.o(.text)
    RCC_LSICmd                               0x08009019   Thumb Code     6  stm32f4xx_rcc.o(.text)
    RCC_PLLConfig                            0x0800901f   Thumb Code    32  stm32f4xx_rcc.o(.text)
    RCC_PLLCmd                               0x0800903f   Thumb Code     6  stm32f4xx_rcc.o(.text)
    RCC_PLLI2SConfig                         0x08009045   Thumb Code    18  stm32f4xx_rcc.o(.text)
    RCC_PLLI2SCmd                            0x08009057   Thumb Code     6  stm32f4xx_rcc.o(.text)
    RCC_PLLSAIConfig                         0x0800905d   Thumb Code    18  stm32f4xx_rcc.o(.text)
    RCC_PLLSAICmd                            0x0800906f   Thumb Code     6  stm32f4xx_rcc.o(.text)
    RCC_ClockSecuritySystemCmd               0x08009075   Thumb Code     6  stm32f4xx_rcc.o(.text)
    RCC_MCO1Config                           0x0800907b   Thumb Code    18  stm32f4xx_rcc.o(.text)
    RCC_MCO2Config                           0x0800908d   Thumb Code    18  stm32f4xx_rcc.o(.text)
    RCC_SYSCLKConfig                         0x0800909f   Thumb Code    16  stm32f4xx_rcc.o(.text)
    RCC_GetSYSCLKSource                      0x080090af   Thumb Code    12  stm32f4xx_rcc.o(.text)
    RCC_HCLKConfig                           0x080090bb   Thumb Code    16  stm32f4xx_rcc.o(.text)
    RCC_PCLK1Config                          0x080090cb   Thumb Code    16  stm32f4xx_rcc.o(.text)
    RCC_PCLK2Config                          0x080090db   Thumb Code    18  stm32f4xx_rcc.o(.text)
    RCC_GetClocksFreq                        0x080090ed   Thumb Code   134  stm32f4xx_rcc.o(.text)
    RCC_RTCCLKConfig                         0x08009173   Thumb Code    42  stm32f4xx_rcc.o(.text)
    RCC_RTCCLKCmd                            0x0800919d   Thumb Code     8  stm32f4xx_rcc.o(.text)
    RCC_BackupResetCmd                       0x080091a5   Thumb Code     8  stm32f4xx_rcc.o(.text)
    RCC_I2SCLKConfig                         0x080091ad   Thumb Code     8  stm32f4xx_rcc.o(.text)
    RCC_SAIPLLI2SClkDivConfig                0x080091b5   Thumb Code    18  stm32f4xx_rcc.o(.text)
    RCC_SAIPLLSAIClkDivConfig                0x080091c7   Thumb Code    24  stm32f4xx_rcc.o(.text)
    RCC_SAIBlockACLKConfig                   0x080091df   Thumb Code    16  stm32f4xx_rcc.o(.text)
    RCC_SAIBlockBCLKConfig                   0x080091ef   Thumb Code    16  stm32f4xx_rcc.o(.text)
    RCC_LTDCCLKDivConfig                     0x080091ff   Thumb Code    16  stm32f4xx_rcc.o(.text)
    RCC_TIMCLKPresConfig                     0x0800920f   Thumb Code     8  stm32f4xx_rcc.o(.text)
    RCC_AHB1PeriphClockCmd                   0x08009217   Thumb Code    20  stm32f4xx_rcc.o(.text)
    RCC_AHB2PeriphClockCmd                   0x0800922b   Thumb Code    20  stm32f4xx_rcc.o(.text)
    RCC_AHB3PeriphClockCmd                   0x0800923f   Thumb Code    20  stm32f4xx_rcc.o(.text)
    RCC_APB1PeriphClockCmd                   0x08009253   Thumb Code    20  stm32f4xx_rcc.o(.text)
    RCC_APB2PeriphClockCmd                   0x08009267   Thumb Code    20  stm32f4xx_rcc.o(.text)
    RCC_AHB1PeriphResetCmd                   0x0800927b   Thumb Code    20  stm32f4xx_rcc.o(.text)
    RCC_AHB2PeriphResetCmd                   0x0800928f   Thumb Code    20  stm32f4xx_rcc.o(.text)
    RCC_AHB3PeriphResetCmd                   0x080092a3   Thumb Code    20  stm32f4xx_rcc.o(.text)
    RCC_APB1PeriphResetCmd                   0x080092b7   Thumb Code    20  stm32f4xx_rcc.o(.text)
    RCC_APB2PeriphResetCmd                   0x080092cb   Thumb Code    20  stm32f4xx_rcc.o(.text)
    RCC_AHB1PeriphClockLPModeCmd             0x080092df   Thumb Code    20  stm32f4xx_rcc.o(.text)
    RCC_AHB2PeriphClockLPModeCmd             0x080092f3   Thumb Code    20  stm32f4xx_rcc.o(.text)
    RCC_AHB3PeriphClockLPModeCmd             0x08009307   Thumb Code    20  stm32f4xx_rcc.o(.text)
    RCC_APB1PeriphClockLPModeCmd             0x0800931b   Thumb Code    68  stm32f4xx_rcc.o(.text)
    RCC_APB2PeriphClockLPModeCmd             0x0800935f   Thumb Code    18  stm32f4xx_rcc.o(.text)
    RCC_ITConfig                             0x08009371   Thumb Code    20  stm32f4xx_rcc.o(.text)
    RCC_ClearFlag                            0x08009385   Thumb Code    14  stm32f4xx_rcc.o(.text)
    RCC_GetITStatus                          0x08009393   Thumb Code    18  stm32f4xx_rcc.o(.text)
    RCC_ClearITPendingBit                    0x080093a5   Thumb Code     8  stm32f4xx_rcc.o(.text)
    SDIO_DeInit                              0x080093b1   Thumb Code    24  stm32f4xx_sdio.o(.text)
    SDIO_Init                                0x080093c9   Thumb Code    40  stm32f4xx_sdio.o(.text)
    SDIO_StructInit                          0x080093f1   Thumb Code    16  stm32f4xx_sdio.o(.text)
    SDIO_ClockCmd                            0x08009401   Thumb Code     8  stm32f4xx_sdio.o(.text)
    SDIO_SetPowerState                       0x08009409   Thumb Code     8  stm32f4xx_sdio.o(.text)
    SDIO_GetPowerState                       0x08009411   Thumb Code    12  stm32f4xx_sdio.o(.text)
    SDIO_SendCommand                         0x0800941d   Thumb Code    38  stm32f4xx_sdio.o(.text)
    SDIO_CmdStructInit                       0x08009443   Thumb Code    14  stm32f4xx_sdio.o(.text)
    SDIO_GetCommandResponse                  0x08009451   Thumb Code    10  stm32f4xx_sdio.o(.text)
    SDIO_GetResponse                         0x0800945b   Thumb Code    14  stm32f4xx_sdio.o(.text)
    SDIO_DataConfig                          0x08009469   Thumb Code    44  stm32f4xx_sdio.o(.text)
    SDIO_DataStructInit                      0x08009495   Thumb Code    20  stm32f4xx_sdio.o(.text)
    SDIO_GetDataCounter                      0x080094a9   Thumb Code     8  stm32f4xx_sdio.o(.text)
    SDIO_ReadData                            0x080094b1   Thumb Code     8  stm32f4xx_sdio.o(.text)
    SDIO_WriteData                           0x080094b9   Thumb Code     8  stm32f4xx_sdio.o(.text)
    SDIO_GetFIFOCount                        0x080094c1   Thumb Code     8  stm32f4xx_sdio.o(.text)
    SDIO_StartSDIOReadWait                   0x080094c9   Thumb Code     6  stm32f4xx_sdio.o(.text)
    SDIO_StopSDIOReadWait                    0x080094cf   Thumb Code     8  stm32f4xx_sdio.o(.text)
    SDIO_SetSDIOReadWaitMode                 0x080094d7   Thumb Code     8  stm32f4xx_sdio.o(.text)
    SDIO_SetSDIOOperation                    0x080094df   Thumb Code     8  stm32f4xx_sdio.o(.text)
    SDIO_SendSDIOSuspendCmd                  0x080094e7   Thumb Code     8  stm32f4xx_sdio.o(.text)
    SDIO_CommandCompletionCmd                0x080094ef   Thumb Code     8  stm32f4xx_sdio.o(.text)
    SDIO_CEATAITCmd                          0x080094f7   Thumb Code    12  stm32f4xx_sdio.o(.text)
    SDIO_SendCEATACmd                        0x08009503   Thumb Code     8  stm32f4xx_sdio.o(.text)
    SDIO_DMACmd                              0x0800950b   Thumb Code     8  stm32f4xx_sdio.o(.text)
    SDIO_ITConfig                            0x08009513   Thumb Code    20  stm32f4xx_sdio.o(.text)
    SDIO_GetFlagStatus                       0x08009527   Thumb Code    18  stm32f4xx_sdio.o(.text)
    SDIO_ClearFlag                           0x08009539   Thumb Code     8  stm32f4xx_sdio.o(.text)
    SDIO_GetITStatus                         0x08009541   Thumb Code    18  stm32f4xx_sdio.o(.text)
    SDIO_ClearITPendingBit                   0x08009553   Thumb Code     8  stm32f4xx_sdio.o(.text)
    SYSCFG_DeInit                            0x08009569   Thumb Code    24  stm32f4xx_syscfg.o(.text)
    SYSCFG_MemoryRemapConfig                 0x08009581   Thumb Code     6  stm32f4xx_syscfg.o(.text)
    SYSCFG_EXTILineConfig                    0x08009587   Thumb Code    42  stm32f4xx_syscfg.o(.text)
    SYSCFG_ETH_MediaInterfaceConfig          0x080095b1   Thumb Code     8  stm32f4xx_syscfg.o(.text)
    SYSCFG_CompensationCellCmd               0x080095b9   Thumb Code     6  stm32f4xx_syscfg.o(.text)
    SYSCFG_GetCompensationCellStatus         0x080095bf   Thumb Code    16  stm32f4xx_syscfg.o(.text)
    USART_DeInit                             0x080095e1   Thumb Code   114  stm32f4xx_usart.o(.text)
    USART_Init                               0x08009653   Thumb Code   164  stm32f4xx_usart.o(.text)
    USART_StructInit                         0x080096f7   Thumb Code    22  stm32f4xx_usart.o(.text)
    USART_ClockInit                          0x0800970d   Thumb Code    28  stm32f4xx_usart.o(.text)
    USART_ClockStructInit                    0x08009729   Thumb Code    12  stm32f4xx_usart.o(.text)
    USART_Cmd                                0x08009735   Thumb Code    20  stm32f4xx_usart.o(.text)
    USART_SetPrescaler                       0x08009749   Thumb Code    16  stm32f4xx_usart.o(.text)
    USART_OverSampling8Cmd                   0x08009759   Thumb Code    20  stm32f4xx_usart.o(.text)
    USART_OneBitMethodCmd                    0x0800976d   Thumb Code    20  stm32f4xx_usart.o(.text)
    USART_SendData                           0x08009781   Thumb Code     8  stm32f4xx_usart.o(.text)
    UART_printf                              0x08009789   Thumb Code     2  stm32f4xx_usart.o(.text)
    USART_ReceiveData                        0x0800978b   Thumb Code     8  stm32f4xx_usart.o(.text)
    USART_SetAddress                         0x08009793   Thumb Code    16  stm32f4xx_usart.o(.text)
    USART_ReceiverWakeUpCmd                  0x080097a3   Thumb Code    20  stm32f4xx_usart.o(.text)
    USART_WakeUpConfig                       0x080097b7   Thumb Code    16  stm32f4xx_usart.o(.text)
    USART_LINBreakDetectLengthConfig         0x080097c7   Thumb Code    16  stm32f4xx_usart.o(.text)
    USART_LINCmd                             0x080097d7   Thumb Code    20  stm32f4xx_usart.o(.text)
    USART_SendBreak                          0x080097eb   Thumb Code    10  stm32f4xx_usart.o(.text)
    USART_HalfDuplexCmd                      0x080097f5   Thumb Code    20  stm32f4xx_usart.o(.text)
    USART_SetGuardTime                       0x08009809   Thumb Code    16  stm32f4xx_usart.o(.text)
    USART_SmartCardCmd                       0x08009819   Thumb Code    20  stm32f4xx_usart.o(.text)
    USART_SmartCardNACKCmd                   0x0800982d   Thumb Code    20  stm32f4xx_usart.o(.text)
    USART_IrDAConfig                         0x08009841   Thumb Code    16  stm32f4xx_usart.o(.text)
    USART_IrDACmd                            0x08009851   Thumb Code    20  stm32f4xx_usart.o(.text)
    USART_DMACmd                             0x08009865   Thumb Code    16  stm32f4xx_usart.o(.text)
    USART_ITConfig                           0x08009875   Thumb Code    48  stm32f4xx_usart.o(.text)
    USART_GetFlagStatus                      0x080098a5   Thumb Code    14  stm32f4xx_usart.o(.text)
    USART_ClearFlag                          0x080098b3   Thumb Code     6  stm32f4xx_usart.o(.text)
    USART_GetITStatus                        0x080098b9   Thumb Code    62  stm32f4xx_usart.o(.text)
    USART_ClearITPendingBit                  0x080098f7   Thumb Code    12  stm32f4xx_usart.o(.text)
    RTC_WaitForSynchro                       0x0800991d   Thumb Code    70  stm32f4xx_rtc.o(.text)
    RTC_EnterInitMode                        0x08009963   Thumb Code    58  stm32f4xx_rtc.o(.text)
    RTC_DeInit                               0x0800999d   Thumb Code   168  stm32f4xx_rtc.o(.text)
    RTC_ExitInitMode                         0x08009a45   Thumb Code    14  stm32f4xx_rtc.o(.text)
    RTC_Init                                 0x08009a53   Thumb Code    74  stm32f4xx_rtc.o(.text)
    RTC_StructInit                           0x08009a9d   Thumb Code    14  stm32f4xx_rtc.o(.text)
    RTC_WriteProtectionCmd                   0x08009aab   Thumb Code    18  stm32f4xx_rtc.o(.text)
    RTC_RefClockCmd                          0x08009abd   Thumb Code    56  stm32f4xx_rtc.o(.text)
    RTC_BypassShadowCmd                      0x08009af5   Thumb Code    38  stm32f4xx_rtc.o(.text)
    RTC_SetTime                              0x08009b1b   Thumb Code   150  stm32f4xx_rtc.o(.text)
    RTC_TimeStructInit                       0x08009bb1   Thumb Code    12  stm32f4xx_rtc.o(.text)
    RTC_GetTime                              0x08009bbd   Thumb Code    70  stm32f4xx_rtc.o(.text)
    RTC_GetSubSecond                         0x08009c03   Thumb Code    14  stm32f4xx_rtc.o(.text)
    RTC_SetDate                              0x08009c11   Thumb Code   144  stm32f4xx_rtc.o(.text)
    RTC_DateStructInit                       0x08009ca1   Thumb Code    14  stm32f4xx_rtc.o(.text)
    RTC_GetDate                              0x08009caf   Thumb Code    66  stm32f4xx_rtc.o(.text)
    RTC_SetAlarm                             0x08009cf1   Thumb Code   176  stm32f4xx_rtc.o(.text)
    RTC_AlarmStructInit                      0x08009da1   Thumb Code    20  stm32f4xx_rtc.o(.text)
    RTC_GetAlarm                             0x08009db5   Thumb Code   104  stm32f4xx_rtc.o(.text)
    RTC_AlarmCmd                             0x08009e1d   Thumb Code    78  stm32f4xx_rtc.o(.text)
    RTC_AlarmSubSecondConfig                 0x08009e6b   Thumb Code    38  stm32f4xx_rtc.o(.text)
    RTC_GetAlarmSubSecond                    0x08009e91   Thumb Code    24  stm32f4xx_rtc.o(.text)
    RTC_WakeUpClockConfig                    0x08009ea9   Thumb Code    34  stm32f4xx_rtc.o(.text)
    RTC_SetWakeUpCounter                     0x08009ecb   Thumb Code    22  stm32f4xx_rtc.o(.text)
    RTC_GetWakeUpCounter                     0x08009ee1   Thumb Code    10  stm32f4xx_rtc.o(.text)
    RTC_WakeUpCmd                            0x08009eeb   Thumb Code    84  stm32f4xx_rtc.o(.text)
    RTC_DayLightSavingConfig                 0x08009f3f   Thumb Code    38  stm32f4xx_rtc.o(.text)
    RTC_GetStoreOperation                    0x08009f65   Thumb Code    12  stm32f4xx_rtc.o(.text)
    RTC_OutputConfig                         0x08009f71   Thumb Code    38  stm32f4xx_rtc.o(.text)
    RTC_CoarseCalibConfig                    0x08009f97   Thumb Code    46  stm32f4xx_rtc.o(.text)
    RTC_CoarseCalibCmd                       0x08009fc5   Thumb Code    56  stm32f4xx_rtc.o(.text)
    RTC_CalibOutputCmd                       0x08009ffd   Thumb Code    38  stm32f4xx_rtc.o(.text)
    RTC_CalibOutputConfig                    0x0800a023   Thumb Code    34  stm32f4xx_rtc.o(.text)
    RTC_SmoothCalibConfig                    0x0800a045   Thumb Code    70  stm32f4xx_rtc.o(.text)
    RTC_TimeStampCmd                         0x0800a08b   Thumb Code    42  stm32f4xx_rtc.o(.text)
    RTC_GetTimeStamp                         0x0800a0b5   Thumb Code   130  stm32f4xx_rtc.o(.text)
    RTC_GetTimeStampSubSecond                0x0800a137   Thumb Code     8  stm32f4xx_rtc.o(.text)
    RTC_TamperTriggerConfig                  0x0800a13f   Thumb Code    24  stm32f4xx_rtc.o(.text)
    RTC_TamperCmd                            0x0800a157   Thumb Code    28  stm32f4xx_rtc.o(.text)
    RTC_TamperFilterConfig                   0x0800a173   Thumb Code    18  stm32f4xx_rtc.o(.text)
    RTC_TamperSamplingFreqConfig             0x0800a185   Thumb Code    18  stm32f4xx_rtc.o(.text)
    RTC_TamperPinsPrechargeDuration          0x0800a197   Thumb Code    18  stm32f4xx_rtc.o(.text)
    RTC_TimeStampOnTamperDetectionCmd        0x0800a1a9   Thumb Code    22  stm32f4xx_rtc.o(.text)
    RTC_TamperPullUpCmd                      0x0800a1bf   Thumb Code    22  stm32f4xx_rtc.o(.text)
    RTC_WriteBackupRegister                  0x0800a1d5   Thumb Code    16  stm32f4xx_rtc.o(.text)
    RTC_ReadBackupRegister                   0x0800a1e5   Thumb Code    16  stm32f4xx_rtc.o(.text)
    RTC_TamperPinSelection                   0x0800a1f5   Thumb Code    18  stm32f4xx_rtc.o(.text)
    RTC_TimeStampPinSelection                0x0800a207   Thumb Code    18  stm32f4xx_rtc.o(.text)
    RTC_OutputTypeConfig                     0x0800a219   Thumb Code    18  stm32f4xx_rtc.o(.text)
    RTC_SynchroShiftConfig                   0x0800a22b   Thumb Code    84  stm32f4xx_rtc.o(.text)
    RTC_ITConfig                             0x0800a27f   Thumb Code    60  stm32f4xx_rtc.o(.text)
    RTC_GetFlagStatus                        0x0800a2bb   Thumb Code    22  stm32f4xx_rtc.o(.text)
    RTC_ClearFlag                            0x0800a2d1   Thumb Code    24  stm32f4xx_rtc.o(.text)
    RTC_GetITStatus                          0x0800a2e9   Thumb Code    46  stm32f4xx_rtc.o(.text)
    RTC_ClearITPendingBit                    0x0800a317   Thumb Code    24  stm32f4xx_rtc.o(.text)
    TIM_DeInit                               0x0800a365   Thumb Code   284  stm32f4xx_tim.o(.text)
    TIM_TimeBaseInit                         0x0800a481   Thumb Code    96  stm32f4xx_tim.o(.text)
    TIM_TimeBaseStructInit                   0x0800a4e1   Thumb Code    18  stm32f4xx_tim.o(.text)
    TIM_PrescalerConfig                      0x0800a4f3   Thumb Code     6  stm32f4xx_tim.o(.text)
    TIM_CounterModeConfig                    0x0800a4f9   Thumb Code    12  stm32f4xx_tim.o(.text)
    TIM_SetCounter                           0x0800a505   Thumb Code     4  stm32f4xx_tim.o(.text)
    TIM_SetAutoreload                        0x0800a509   Thumb Code     4  stm32f4xx_tim.o(.text)
    TIM_GetCounter                           0x0800a50d   Thumb Code     4  stm32f4xx_tim.o(.text)
    TIM_GetPrescaler                         0x0800a511   Thumb Code     4  stm32f4xx_tim.o(.text)
    TIM_UpdateDisableConfig                  0x0800a515   Thumb Code    20  stm32f4xx_tim.o(.text)
    TIM_UpdateRequestConfig                  0x0800a529   Thumb Code    20  stm32f4xx_tim.o(.text)
    TIM_ARRPreloadConfig                     0x0800a53d   Thumb Code    20  stm32f4xx_tim.o(.text)
    TIM_SelectOnePulseMode                   0x0800a551   Thumb Code    16  stm32f4xx_tim.o(.text)
    TIM_SetClockDivision                     0x0800a561   Thumb Code    16  stm32f4xx_tim.o(.text)
    TIM_Cmd                                  0x0800a571   Thumb Code    20  stm32f4xx_tim.o(.text)
    TIM_OC1Init                              0x0800a585   Thumb Code    88  stm32f4xx_tim.o(.text)
    TIM_OC2Init                              0x0800a5dd   Thumb Code   120  stm32f4xx_tim.o(.text)
    TIM_OC3Init                              0x0800a655   Thumb Code   116  stm32f4xx_tim.o(.text)
    TIM_OC4Init                              0x0800a6c9   Thumb Code    88  stm32f4xx_tim.o(.text)
    TIM_OCStructInit                         0x0800a721   Thumb Code    20  stm32f4xx_tim.o(.text)
    TIM_SelectOCxM                           0x0800a735   Thumb Code   130  stm32f4xx_tim.o(.text)
    TIM_SetCompare1                          0x0800a7b7   Thumb Code     4  stm32f4xx_tim.o(.text)
    TIM_SetCompare2                          0x0800a7bb   Thumb Code     4  stm32f4xx_tim.o(.text)
    TIM_SetCompare3                          0x0800a7bf   Thumb Code     4  stm32f4xx_tim.o(.text)
    TIM_SetCompare4                          0x0800a7c3   Thumb Code     4  stm32f4xx_tim.o(.text)
    TIM_ForcedOC1Config                      0x0800a7c7   Thumb Code    12  stm32f4xx_tim.o(.text)
    TIM_ForcedOC2Config                      0x0800a7d3   Thumb Code    20  stm32f4xx_tim.o(.text)
    TIM_ForcedOC3Config                      0x0800a7e7   Thumb Code    12  stm32f4xx_tim.o(.text)
    TIM_ForcedOC4Config                      0x0800a7f3   Thumb Code    20  stm32f4xx_tim.o(.text)
    TIM_OC1PreloadConfig                     0x0800a807   Thumb Code    12  stm32f4xx_tim.o(.text)
    TIM_OC2PreloadConfig                     0x0800a813   Thumb Code    20  stm32f4xx_tim.o(.text)
    TIM_OC3PreloadConfig                     0x0800a827   Thumb Code    12  stm32f4xx_tim.o(.text)
    TIM_OC4PreloadConfig                     0x0800a833   Thumb Code    20  stm32f4xx_tim.o(.text)
    TIM_OC1FastConfig                        0x0800a847   Thumb Code    12  stm32f4xx_tim.o(.text)
    TIM_OC2FastConfig                        0x0800a853   Thumb Code    20  stm32f4xx_tim.o(.text)
    TIM_OC3FastConfig                        0x0800a867   Thumb Code    12  stm32f4xx_tim.o(.text)
    TIM_OC4FastConfig                        0x0800a873   Thumb Code    20  stm32f4xx_tim.o(.text)
    TIM_ClearOC1Ref                          0x0800a887   Thumb Code    12  stm32f4xx_tim.o(.text)
    TIM_ClearOC2Ref                          0x0800a893   Thumb Code    20  stm32f4xx_tim.o(.text)
    TIM_ClearOC3Ref                          0x0800a8a7   Thumb Code    12  stm32f4xx_tim.o(.text)
    TIM_ClearOC4Ref                          0x0800a8b3   Thumb Code    20  stm32f4xx_tim.o(.text)
    TIM_OC1PolarityConfig                    0x0800a8c7   Thumb Code    12  stm32f4xx_tim.o(.text)
    TIM_OC1NPolarityConfig                   0x0800a8d3   Thumb Code    12  stm32f4xx_tim.o(.text)
    TIM_OC2PolarityConfig                    0x0800a8df   Thumb Code    20  stm32f4xx_tim.o(.text)
    TIM_OC2NPolarityConfig                   0x0800a8f3   Thumb Code    20  stm32f4xx_tim.o(.text)
    TIM_OC3PolarityConfig                    0x0800a907   Thumb Code    20  stm32f4xx_tim.o(.text)
    TIM_OC3NPolarityConfig                   0x0800a91b   Thumb Code    20  stm32f4xx_tim.o(.text)
    TIM_OC4PolarityConfig                    0x0800a92f   Thumb Code    20  stm32f4xx_tim.o(.text)
    TIM_CCxCmd                               0x0800a943   Thumb Code    22  stm32f4xx_tim.o(.text)
    TIM_CCxNCmd                              0x0800a959   Thumb Code    22  stm32f4xx_tim.o(.text)
    TIM_SetIC4Prescaler                      0x0800a96f   Thumb Code    24  stm32f4xx_tim.o(.text)
    TIM_SetIC3Prescaler                      0x0800a987   Thumb Code    16  stm32f4xx_tim.o(.text)
    TIM_SetIC2Prescaler                      0x0800a997   Thumb Code    24  stm32f4xx_tim.o(.text)
    TIM_SetIC1Prescaler                      0x0800a9e5   Thumb Code    16  stm32f4xx_tim.o(.text)
    TIM_ICInit                               0x0800a9f5   Thumb Code   164  stm32f4xx_tim.o(.text)
    TIM_ICStructInit                         0x0800aa99   Thumb Code    16  stm32f4xx_tim.o(.text)
    TIM_PWMIConfig                           0x0800aaa9   Thumb Code   104  stm32f4xx_tim.o(.text)
    TIM_GetCapture1                          0x0800ab11   Thumb Code     4  stm32f4xx_tim.o(.text)
    TIM_GetCapture2                          0x0800ab15   Thumb Code     4  stm32f4xx_tim.o(.text)
    TIM_GetCapture3                          0x0800ab19   Thumb Code     4  stm32f4xx_tim.o(.text)
    TIM_GetCapture4                          0x0800ab1d   Thumb Code     4  stm32f4xx_tim.o(.text)
    TIM_BDTRConfig                           0x0800ab21   Thumb Code    34  stm32f4xx_tim.o(.text)
    TIM_BDTRStructInit                       0x0800ab43   Thumb Code    18  stm32f4xx_tim.o(.text)
    TIM_CtrlPWMOutputs                       0x0800ab55   Thumb Code    22  stm32f4xx_tim.o(.text)
    TIM_SelectCOM                            0x0800ab6b   Thumb Code    20  stm32f4xx_tim.o(.text)
    TIM_CCPreloadControl                     0x0800ab7f   Thumb Code    20  stm32f4xx_tim.o(.text)
    TIM_ITConfig                             0x0800ab93   Thumb Code    16  stm32f4xx_tim.o(.text)
    TIM_GenerateEvent                        0x0800aba3   Thumb Code     4  stm32f4xx_tim.o(.text)
    TIM_GetFlagStatus                        0x0800aba7   Thumb Code    14  stm32f4xx_tim.o(.text)
    TIM_ClearFlag                            0x0800abb5   Thumb Code     6  stm32f4xx_tim.o(.text)
    TIM_GetITStatus                          0x0800abbb   Thumb Code    24  stm32f4xx_tim.o(.text)
    TIM_ClearITPendingBit                    0x0800abd3   Thumb Code     6  stm32f4xx_tim.o(.text)
    TIM_DMAConfig                            0x0800abd9   Thumb Code     8  stm32f4xx_tim.o(.text)
    TIM_DMACmd                               0x0800abe1   Thumb Code    16  stm32f4xx_tim.o(.text)
    TIM_SelectCCDMA                          0x0800abf1   Thumb Code    20  stm32f4xx_tim.o(.text)
    TIM_InternalClockConfig                  0x0800ac05   Thumb Code    10  stm32f4xx_tim.o(.text)
    TIM_SelectInputTrigger                   0x0800ac0f   Thumb Code    12  stm32f4xx_tim.o(.text)
    TIM_ITRxExternalClockConfig              0x0800ac1b   Thumb Code    18  stm32f4xx_tim.o(.text)
    TIM_TIxExternalClockConfig               0x0800ac2d   Thumb Code    46  stm32f4xx_tim.o(.text)
    TIM_ETRConfig                            0x0800ac5b   Thumb Code    24  stm32f4xx_tim.o(.text)
    TIM_ETRClockMode1Config                  0x0800ac73   Thumb Code    18  stm32f4xx_tim.o(.text)
    TIM_ETRClockMode2Config                  0x0800ac85   Thumb Code    18  stm32f4xx_tim.o(.text)
    TIM_SelectOutputTrigger                  0x0800ac97   Thumb Code    16  stm32f4xx_tim.o(.text)
    TIM_SelectSlaveMode                      0x0800aca7   Thumb Code    16  stm32f4xx_tim.o(.text)
    TIM_SelectMasterSlaveMode                0x0800acb7   Thumb Code    16  stm32f4xx_tim.o(.text)
    TIM_EncoderInterfaceConfig               0x0800acc7   Thumb Code    50  stm32f4xx_tim.o(.text)
    TIM_SelectHallSensor                     0x0800acf9   Thumb Code    20  stm32f4xx_tim.o(.text)
    TIM_RemapConfig                          0x0800ad0d   Thumb Code     6  stm32f4xx_tim.o(.text)
    ETH_DeInit                               0x0800ad41   Thumb Code    24  stm32f4x7_eth.o(.text)
    ETH_StructInit                           0x0800ad59   Thumb Code   136  stm32f4x7_eth.o(.text)
    ETH_WritePHYRegister                     0x0800ade1   Thumb Code    76  stm32f4x7_eth.o(.text)
    ETH_ReadPHYRegister                      0x0800ae2d   Thumb Code    82  stm32f4x7_eth.o(.text)
    ETH_Init                                 0x0800ae7f   Thumb Code   678  stm32f4x7_eth.o(.text)
    ETH_DMAReceptionCmd                      0x0800b125   Thumb Code    22  stm32f4x7_eth.o(.text)
    ETH_DMATransmissionCmd                   0x0800b13b   Thumb Code    22  stm32f4x7_eth.o(.text)
    ETH_FlushTransmitFIFO                    0x0800b151   Thumb Code    28  stm32f4x7_eth.o(.text)
    ETH_MACReceptionCmd                      0x0800b16d   Thumb Code    42  stm32f4x7_eth.o(.text)
    ETH_MACTransmissionCmd                   0x0800b197   Thumb Code   150  stm32f4x7_eth.o(.text)
    ETH_Start                                0x0800b22d   Thumb Code    32  stm32f4x7_eth.o(.text)
    ETH_Stop                                 0x0800b24d   Thumb Code    32  stm32f4x7_eth.o(.text)
    ETH_GetFlowControlBusyStatus             0x0800b26d   Thumb Code    14  stm32f4x7_eth.o(.text)
    ETH_InitiatePauseControlFrame            0x0800b27b   Thumb Code    28  stm32f4x7_eth.o(.text)
    ETH_BackPressureActivationCmd            0x0800b297   Thumb Code    42  stm32f4x7_eth.o(.text)
    ETH_GetMACFlagStatus                     0x0800b2c1   Thumb Code    16  stm32f4x7_eth.o(.text)
    ETH_GetMACITStatus                       0x0800b2d1   Thumb Code    16  stm32f4x7_eth.o(.text)
    ETH_MACITConfig                          0x0800b2e1   Thumb Code    18  stm32f4x7_eth.o(.text)
    ETH_MACAddressConfig                     0x0800b2f3   Thumb Code    22  stm32f4x7_eth.o(.text)
    ETH_GetMACAddress                        0x0800b309   Thumb Code    30  stm32f4x7_eth.o(.text)
    ETH_MACAddressPerfectFilterCmd           0x0800b327   Thumb Code    42  stm32f4x7_eth.o(.text)
    ETH_MACAddressFilterConfig               0x0800b351   Thumb Code    44  stm32f4x7_eth.o(.text)
    ETH_MACAddressMaskBytesFilterConfig      0x0800b37d   Thumb Code    52  stm32f4x7_eth.o(.text)
    ETH_Get_Received_Frame                   0x0800b3b1   Thumb Code    32  stm32f4x7_eth.o(.text)
    ETH_Get_Received_Frame_interrupt         0x0800b3d1   Thumb Code   136  stm32f4x7_eth.o(.text)
    ETH_Prepare_Transmit_Descriptors         0x0800b459   Thumb Code   164  stm32f4x7_eth.o(.text)
    ETH_DMARxDescChainInit                   0x0800b4fd   Thumb Code    74  stm32f4x7_eth.o(.text)
    ETH_CheckFrameReceived                   0x0800b547   Thumb Code   108  stm32f4x7_eth.o(.text)
    ETH_DMATxDescChainInit                   0x0800b5b3   Thumb Code    64  stm32f4x7_eth.o(.text)
    ETH_GetDMATxDescFlagStatus               0x0800b5f3   Thumb Code    14  stm32f4x7_eth.o(.text)
    ETH_GetDMATxDescCollisionCount           0x0800b601   Thumb Code     8  stm32f4x7_eth.o(.text)
    ETH_SetDMATxDescOwnBit                   0x0800b609   Thumb Code    10  stm32f4x7_eth.o(.text)
    ETH_DMATxDescTransmitITConfig            0x0800b613   Thumb Code    20  stm32f4x7_eth.o(.text)
    ETH_DMATxDescFrameSegmentConfig          0x0800b627   Thumb Code     8  stm32f4x7_eth.o(.text)
    ETH_DMATxDescChecksumInsertionConfig     0x0800b62f   Thumb Code     8  stm32f4x7_eth.o(.text)
    ETH_DMATxDescCRCCmd                      0x0800b637   Thumb Code    38  stm32f4x7_eth.o(.text)
    ETH_DMATxDescSecondAddressChainedCmd     0x0800b65d   Thumb Code    20  stm32f4x7_eth.o(.text)
    ETH_DMATxDescShortFramePaddingCmd        0x0800b671   Thumb Code    20  stm32f4x7_eth.o(.text)
    ETH_DMATxDescBufferSizeConfig            0x0800b685   Thumb Code    12  stm32f4x7_eth.o(.text)
    ETH_GetDMARxDescFlagStatus               0x0800b691   Thumb Code    14  stm32f4x7_eth.o(.text)
    ETH_GetDMAPTPRxDescExtendedFlagStatus    0x0800b69f   Thumb Code    14  stm32f4x7_eth.o(.text)
    ETH_SetDMARxDescOwnBit                   0x0800b6ad   Thumb Code    10  stm32f4x7_eth.o(.text)
    ETH_GetDMARxDescFrameLength              0x0800b6b7   Thumb Code     8  stm32f4x7_eth.o(.text)
    ETH_DMARxDescReceiveITConfig             0x0800b6bf   Thumb Code    18  stm32f4x7_eth.o(.text)
    ETH_GetDMARxDescBufferSize               0x0800b6d1   Thumb Code    16  stm32f4x7_eth.o(.text)
    ETH_GetRxPktSize                         0x0800b6e1   Thumb Code    30  stm32f4x7_eth.o(.text)
    ETH_EnhancedDescriptorCmd                0x0800b6ff   Thumb Code    42  stm32f4x7_eth.o(.text)
    ETH_SoftwareReset                        0x0800b729   Thumb Code    12  stm32f4x7_eth.o(.text)
    ETH_GetSoftwareResetStatus               0x0800b735   Thumb Code    14  stm32f4x7_eth.o(.text)
    ETH_GetDMAFlagStatus                     0x0800b743   Thumb Code    16  stm32f4x7_eth.o(.text)
    ETH_DMAClearFlag                         0x0800b753   Thumb Code     6  stm32f4x7_eth.o(.text)
    ETH_DMAITConfig                          0x0800b759   Thumb Code    18  stm32f4x7_eth.o(.text)
    ETH_GetDMAITStatus                       0x0800b76b   Thumb Code    16  stm32f4x7_eth.o(.text)
    ETH_DMAClearITPendingBit                 0x0800b77b   Thumb Code     6  stm32f4x7_eth.o(.text)
    ETH_GetTransmitProcessState              0x0800b781   Thumb Code    10  stm32f4x7_eth.o(.text)
    ETH_GetReceiveProcessState               0x0800b78b   Thumb Code    10  stm32f4x7_eth.o(.text)
    ETH_GetFlushTransmitFIFOStatus           0x0800b795   Thumb Code    14  stm32f4x7_eth.o(.text)
    ETH_GetDMAOverflowStatus                 0x0800b7a3   Thumb Code    16  stm32f4x7_eth.o(.text)
    ETH_GetRxOverflowMissedFrameCounter      0x0800b7b3   Thumb Code    10  stm32f4x7_eth.o(.text)
    ETH_GetBufferUnavailableMissedFrameCounter 0x0800b7bd   Thumb Code     8  stm32f4x7_eth.o(.text)
    ETH_GetCurrentTxDescStartAddress         0x0800b7c5   Thumb Code     6  stm32f4x7_eth.o(.text)
    ETH_GetCurrentRxDescStartAddress         0x0800b7cb   Thumb Code     6  stm32f4x7_eth.o(.text)
    ETH_GetCurrentTxBufferAddress            0x0800b7d1   Thumb Code     6  stm32f4x7_eth.o(.text)
    ETH_GetCurrentRxBufferAddress            0x0800b7d7   Thumb Code     6  stm32f4x7_eth.o(.text)
    ETH_ResumeDMATransmission                0x0800b7dd   Thumb Code     8  stm32f4x7_eth.o(.text)
    ETH_ResumeDMAReception                   0x0800b7e5   Thumb Code     8  stm32f4x7_eth.o(.text)
    ETH_SetReceiveWatchdogTimer              0x0800b7ed   Thumb Code     6  stm32f4x7_eth.o(.text)
    ETH_PHYLoopBackCmd                       0x0800b7f3   Thumb Code    40  stm32f4x7_eth.o(.text)
    ETH_ResetWakeUpFrameFilterRegisterPointer 0x0800b81b   Thumb Code    28  stm32f4x7_eth.o(.text)
    ETH_SetWakeUpFrameFilterRegister         0x0800b837   Thumb Code    42  stm32f4x7_eth.o(.text)
    ETH_GlobalUnicastWakeUpCmd               0x0800b861   Thumb Code    42  stm32f4x7_eth.o(.text)
    ETH_GetPMTFlagStatus                     0x0800b88b   Thumb Code    16  stm32f4x7_eth.o(.text)
    ETH_WakeUpFrameDetectionCmd              0x0800b89b   Thumb Code    42  stm32f4x7_eth.o(.text)
    ETH_MagicPacketDetectionCmd              0x0800b8c5   Thumb Code    42  stm32f4x7_eth.o(.text)
    ETH_PowerDownCmd                         0x0800b8ef   Thumb Code    42  stm32f4x7_eth.o(.text)
    ETH_MMCCounterFullPreset                 0x0800b919   Thumb Code    16  stm32f4x7_eth.o(.text)
    ETH_MMCCounterHalfPreset                 0x0800b929   Thumb Code    28  stm32f4x7_eth.o(.text)
    ETH_MMCCounterFreezeCmd                  0x0800b945   Thumb Code    26  stm32f4x7_eth.o(.text)
    ETH_MMCResetOnReadCmd                    0x0800b95f   Thumb Code    26  stm32f4x7_eth.o(.text)
    ETH_MMCCounterRolloverCmd                0x0800b979   Thumb Code    26  stm32f4x7_eth.o(.text)
    ETH_MMCCountersReset                     0x0800b993   Thumb Code    16  stm32f4x7_eth.o(.text)
    ETH_MMCITConfig                          0x0800b9a3   Thumb Code    50  stm32f4x7_eth.o(.text)
    ETH_GetMMCITStatus                       0x0800b9d5   Thumb Code    36  stm32f4x7_eth.o(.text)
    ETH_GetMMCRegister                       0x0800b9f9   Thumb Code     6  stm32f4x7_eth.o(.text)
    pxPortInitialiseStack                    0x0800ba09   Thumb Code    34  port.o(.text)
    vPortSetupTimerInterrupt                 0x0800ba2b   Thumb Code    26  port.o(.text)
    xPortStartScheduler                      0x0800ba45   Thumb Code    52  port.o(.text)
    vPortEndScheduler                        0x0800ba79   Thumb Code     2  port.o(.text)
    vPortYieldFromISR                        0x0800ba7b   Thumb Code    12  port.o(.text)
    vPortEnterCritical                       0x0800ba87   Thumb Code    16  port.o(.text)
    vPortExitCritical                        0x0800ba97   Thumb Code    16  port.o(.text)
    xPortSysTickHandler                      0x0800baa7   Thumb Code    30  port.o(.text)
    xTaskGenericCreate                       0x0800bad5   Thumb Code   356  tasks.o(.text)
    vTaskDelete                              0x0800bc39   Thumb Code    90  tasks.o(.text)
    vTaskIncrementTick                       0x0800bc93   Thumb Code   162  tasks.o(.text)
    xTaskResumeAll                           0x0800bd35   Thumb Code   172  tasks.o(.text)
    vTaskSuspendAll                          0x0800be11   Thumb Code    10  tasks.o(.text)
    vTaskDelay                               0x0800be1b   Thumb Code    48  tasks.o(.text)
    uxTaskPriorityGet                        0x0800be4b   Thumb Code    24  tasks.o(.text)
    vTaskPrioritySet                         0x0800be63   Thumb Code   148  tasks.o(.text)
    vTaskStartScheduler                      0x0800bf09   Thumb Code    60  tasks.o(.text)
    vTaskEndScheduler                        0x0800bf45   Thumb Code    20  tasks.o(.text)
    xTaskGetTickCount                        0x0800bf59   Thumb Code    44  tasks.o(.text)
    xTaskGetTickCountFromISR                 0x0800bf85   Thumb Code    18  tasks.o(.text)
    uxTaskGetNumberOfTasks                   0x0800bf97   Thumb Code     6  tasks.o(.text)
    vTaskList                                0x0800c00b   Thumb Code   114  tasks.o(.text)
    vTaskSwitchContext                       0x0800c07d   Thumb Code   128  tasks.o(.text)
    vTaskPlaceOnEventList                    0x0800c0fd   Thumb Code    40  tasks.o(.text)
    xTaskRemoveFromEventList                 0x0800c125   Thumb Code    90  tasks.o(.text)
    vTaskSetTimeOutState                     0x0800c17f   Thumb Code    22  tasks.o(.text)
    xTaskCheckForTimeOut                     0x0800c195   Thumb Code    84  tasks.o(.text)
    vTaskMissedYield                         0x0800c1e9   Thumb Code     8  tasks.o(.text)
    uxTaskGetTaskNumber                      0x0800c1f1   Thumb Code     8  tasks.o(.text)
    vTaskSetTaskNumber                       0x0800c1f9   Thumb Code     8  tasks.o(.text)
    xTaskGetCurrentTaskHandle                0x0800c201   Thumb Code     6  tasks.o(.text)
    vTaskPriorityInherit                     0x0800c207   Thumb Code    94  tasks.o(.text)
    vTaskPriorityDisinherit                  0x0800c265   Thumb Code    66  tasks.o(.text)
    vListInitialise                          0x0800c31d   Thumb Code    22  list.o(.text)
    vListInitialiseItem                      0x0800c333   Thumb Code     6  list.o(.text)
    vListInsertEnd                           0x0800c339   Thumb Code    28  list.o(.text)
    vListInsert                              0x0800c355   Thumb Code    48  list.o(.text)
    uxListRemove                             0x0800c385   Thumb Code    38  list.o(.text)
    xQueueGenericReset                       0x0800c3ad   Thumb Code    98  queue.o(.text)
    xQueueGenericCreate                      0x0800c40f   Thumb Code    70  queue.o(.text)
    xQueueGenericSend                        0x0800c513   Thumb Code   232  queue.o(.text)
    xQueueCreateMutex                        0x0800c5fb   Thumb Code    80  queue.o(.text)
    xQueueGiveMutexRecursive                 0x0800c64b   Thumb Code    52  queue.o(.text)
    xQueueGenericReceive                     0x0800c6a7   Thumb Code   286  queue.o(.text)
    xQueueTakeMutexRecursive                 0x0800c7c5   Thumb Code    58  queue.o(.text)
    xQueueCreateCountingSemaphore            0x0800c7ff   Thumb Code    24  queue.o(.text)
    xQueueGenericSendFromISR                 0x0800c817   Thumb Code   114  queue.o(.text)
    xQueueReceiveFromISR                     0x0800c889   Thumb Code   112  queue.o(.text)
    uxQueueMessagesWaiting                   0x0800c8f9   Thumb Code    26  queue.o(.text)
    uxQueueMessagesWaitingFromISR            0x0800c913   Thumb Code    14  queue.o(.text)
    vQueueDelete                             0x0800c921   Thumb Code    58  queue.o(.text)
    ucQueueGetQueueNumber                    0x0800c95b   Thumb Code     6  queue.o(.text)
    vQueueSetQueueNumber                     0x0800c961   Thumb Code     6  queue.o(.text)
    ucQueueGetQueueType                      0x0800c967   Thumb Code     6  queue.o(.text)
    xQueueIsQueueEmptyFromISR                0x0800c96d   Thumb Code    22  queue.o(.text)
    xQueueIsQueueFullFromISR                 0x0800c983   Thumb Code    26  queue.o(.text)
    vQueueAddToRegistry                      0x0800c99d   Thumb Code    34  queue.o(.text)
    pvPortMalloc                             0x0800ca0d   Thumb Code   126  heap_4.o(.text)
    vPortFree                                0x0800ca8b   Thumb Code    42  heap_4.o(.text)
    xPortGetFreeHeapSize                     0x0800cab5   Thumb Code     8  heap_4.o(.text)
    vPortInitialiseBlocks                    0x0800cabd   Thumb Code     2  heap_4.o(.text)
    SD_DeInit                                0x0800cc03   Thumb Code     4  sdio_sd.o(.text)
    SD_EnableWideBusOperation                0x0800cec7   Thumb Code   128  sdio_sd.o(.text)
    SD_SelectDeselect                        0x0800cf47   Thumb Code    40  sdio_sd.o(.text)
    SD_GetCardInfo                           0x0800cf6f   Thumb Code   608  sdio_sd.o(.text)
    SD_InitializeCards                       0x0800d1fd   Thumb Code   250  sdio_sd.o(.text)
    SD_Init                                  0x0800d4d3   Thumb Code   174  sdio_sd.o(.text)
    SD_SendStatus                            0x0800d581   Thumb Code    64  sdio_sd.o(.text)
    SD_Detect                                0x0800d5c1   Thumb Code    30  sdio_sd.o(.text)
    SD_GetState                              0x0800d5df   Thumb Code    34  sdio_sd.o(.text)
    SD_GetStatus                             0x0800d601   Thumb Code    26  sdio_sd.o(.text)
    SD_PowerOFF                              0x0800d61b   Thumb Code    14  sdio_sd.o(.text)
    SD_SendSDStatus                          0x0800d629   Thumb Code   348  sdio_sd.o(.text)
    SD_GetCardStatus                         0x0800d785   Thumb Code   124  sdio_sd.o(.text)
    SD_ReadBlock                             0x0800d801   Thumb Code   162  sdio_sd.o(.text)
    SD_ReadMultiBlocks                       0x0800d8a3   Thumb Code   178  sdio_sd.o(.text)
    SD_ReadMultiBlocksFIXED                  0x0800d955   Thumb Code   204  sdio_sd.o(.text)
    SD_StopTransfer                          0x0800da21   Thumb Code    38  sdio_sd.o(.text)
    SD_WaitReadOperation                     0x0800da47   Thumb Code    96  sdio_sd.o(.text)
    SD_WriteBlock                            0x0800daa7   Thumb Code   160  sdio_sd.o(.text)
    SD_WriteMultiBlocks                      0x0800db47   Thumb Code   260  sdio_sd.o(.text)
    SD_WriteMultiBlocksFIXED                 0x0800dc4b   Thumb Code   278  sdio_sd.o(.text)
    SD_WaitWriteOperation                    0x0800dd61   Thumb Code    94  sdio_sd.o(.text)
    SD_GetTransferState                      0x0800ddbf   Thumb Code    16  sdio_sd.o(.text)
    SD_Erase                                 0x0800df0b   Thumb Code   248  sdio_sd.o(.text)
    SD_ProcessIRQSrc                         0x0800e003   Thumb Code   162  sdio_sd.o(.text)
    SD_ProcessDMAIRQ                         0x0800e0a5   Thumb Code    28  sdio_sd.o(.text)
    convert_from_bytes_to_power_of_two       0x0800e0c1   Thumb Code    18  sdio_sd.o(.text)
    clust2sect                               0x0800e3cb   Thumb Code    24  ff.o(.text)
    get_fat                                  0x0800e3e3   Thumb Code   182  ff.o(.text)
    put_fat                                  0x0800e499   Thumb Code   250  ff.o(.text)
    f_mount                                  0x0800ed8b   Thumb Code    26  ff.o(.text)
    f_open                                   0x0800eda5   Thumb Code   308  ff.o(.text)
    f_read                                   0x0800eed9   Thumb Code   332  ff.o(.text)
    f_write                                  0x0800f025   Thumb Code   398  ff.o(.text)
    f_sync                                   0x0800f1b3   Thumb Code   152  ff.o(.text)
    f_close                                  0x0800f24b   Thumb Code    18  ff.o(.text)
    f_lseek                                  0x0800f25d   Thumb Code   302  ff.o(.text)
    f_opendir                                0x0800f38b   Thumb Code    92  ff.o(.text)
    f_readdir                                0x0800f3e7   Thumb Code    78  ff.o(.text)
    f_stat                                   0x0800f435   Thumb Code    58  ff.o(.text)
    f_getfree                                0x0800f46f   Thumb Code   194  ff.o(.text)
    f_truncate                               0x0800f531   Thumb Code   140  ff.o(.text)
    f_unlink                                 0x0800f5bd   Thumb Code   162  ff.o(.text)
    f_mkdir                                  0x0800f65f   Thumb Code   344  ff.o(.text)
    f_chmod                                  0x0800f7b7   Thumb Code    74  ff.o(.text)
    f_utime                                  0x0800f801   Thumb Code    80  ff.o(.text)
    f_rename                                 0x0800f851   Thumb Code   250  ff.o(.text)
    f_getlabel                               0x0800f94b   Thumb Code   148  ff.o(.text)
    f_setlabel                               0x0800f9df   Thumb Code   310  ff.o(.text)
    f_gets                                   0x0800fb15   Thumb Code    68  ff.o(.text)
    f_putc                                   0x0800fb59   Thumb Code    32  ff.o(.text)
    f_puts                                   0x0800fb79   Thumb Code    40  ff.o(.text)
    f_printf                                 0x0800fba1   Thumb Code   504  ff.o(.text)
    get_fattime                              0x0800fe01   Thumb Code    76  fattime.o(.text)
    disk_initialize                          0x0800fe4d   Thumb Code    22  diskio.o(.text)
    disk_status                              0x0800fe63   Thumb Code    18  diskio.o(.text)
    disk_read                                0x0800fe75   Thumb Code   130  diskio.o(.text)
    disk_write                               0x0800fef7   Thumb Code   128  diskio.o(.text)
    disk_ioctl                               0x0800ff77   Thumb Code     4  diskio.o(.text)
    Main_task                                0x0800ff7d   Thumb Code   314  main.o(.text)
    main                                     0x080100b7   Thumb Code    62  main.o(.text)
    tasktest                                 0x080100f5   Thumb Code    16  main.o(.text)
    vApplicationStackOverflowHook            0x08010105   Thumb Code    24  main.o(.text)
    Delay                                    0x0801011d   Thumb Code     4  main.o(.text)
    NMI_Handler                              0x08010345   Thumb Code     2  stm32f4xx_it.o(.text)
    HardFault_Handler                        0x08010347   Thumb Code     2  stm32f4xx_it.o(.text)
    MemManage_Handler                        0x08010349   Thumb Code     2  stm32f4xx_it.o(.text)
    BusFault_Handler                         0x0801034b   Thumb Code     2  stm32f4xx_it.o(.text)
    UsageFault_Handler                       0x0801034d   Thumb Code     2  stm32f4xx_it.o(.text)
    DebugMon_Handler                         0x0801034f   Thumb Code     2  stm32f4xx_it.o(.text)
    SysTick_Handler                          0x08010351   Thumb Code     4  stm32f4xx_it.o(.text)
    EXTI15_10_IRQHandler                     0x08010355   Thumb Code    50  stm32f4xx_it.o(.text)
    ETH_IRQHandler                           0x08010387   Thumb Code    56  stm32f4xx_it.o(.text)
    SDIO_IRQHandler                          0x080103bf   Thumb Code     4  stm32f4xx_it.o(.text)
    DMA2_Stream3_IRQHandler                  0x080103c3   Thumb Code     4  stm32f4xx_it.o(.text)
    DMA2_Stream7_IRQHandler                  0x080103c7   Thumb Code   186  stm32f4xx_it.o(.text)
    USART1_IRQHandler                        0x08010481   Thumb Code    86  stm32f4xx_it.o(.text)
    DMA1_Stream6_IRQHandler                  0x080104d7   Thumb Code    60  stm32f4xx_it.o(.text)
    USART2_IRQHandler                        0x08010513   Thumb Code    90  stm32f4xx_it.o(.text)
    USART6_IRQHandler                        0x0801056d   Thumb Code    84  stm32f4xx_it.o(.text)
    DMA1_Stream1_IRQHandler                  0x080105c1   Thumb Code    74  stm32f4xx_it.o(.text)
    UART7_IRQHandler                         0x0801060b   Thumb Code    84  stm32f4xx_it.o(.text)
    TIM6_DAC_IRQHandler                      0x0801065f   Thumb Code    68  stm32f4xx_it.o(.text)
    Eth_Link_IT_task                         0x080106ed   Thumb Code    58  stm32f4x7_eth_bsp.o(.text)
    Eth_Link_EXTIConfig                      0x08010727   Thumb Code   104  stm32f4x7_eth_bsp.o(.text)
    Eth_Link_PHYITConfig                     0x0801078f   Thumb Code    54  stm32f4x7_eth_bsp.o(.text)
    ETH_BSP_Config                           0x08010963   Thumb Code   128  stm32f4x7_eth_bsp.o(.text)
    ETH_link_callback                        0x080109e3   Thumb Code   172  stm32f4x7_eth_bsp.o(.text)
    set_ipv4_config                          0x08010ac9   Thumb Code    20  netconf.o(.text)
    LwIP_Init                                0x08010add   Thumb Code   110  netconf.o(.text)
    read_config                              0x08010b69   Thumb Code  2052  sys_config.o(.text)
    rc_config_start                          0x0801136d   Thumb Code   276  sys_config.o(.text)
    Alg_write_data_from_buf                  0x08011575   Thumb Code   494  algbloc.o(.text)
    Alg_write_data_to_buf_read               0x08011763   Thumb Code   144  algbloc.o(.text)
    vAlg_block_Task                          0x080117f3   Thumb Code   898  algbloc.o(.text)
    write_modbas_inf                         0x08011b75   Thumb Code    82  algbloc.o(.text)
    write_mc_value                           0x08011bc7   Thumb Code   440  algbloc.o(.text)
    get_mc_DO_byte                           0x08011d7f   Thumb Code   114  algbloc.o(.text)
    get_mc_AO_byte                           0x08011df1   Thumb Code    44  algbloc.o(.text)
    get_mc_DO_byte_from_buf                  0x08011e1d   Thumb Code    72  algbloc.o(.text)
    get_mc_AO_byte_from_buf                  0x08011e65   Thumb Code    42  algbloc.o(.text)
    write_mc_value_to_buf                    0x08011e8f   Thumb Code   704  algbloc.o(.text)
    write_mc_value_lost_to_buf               0x0801214f   Thumb Code   292  algbloc.o(.text)
    Server_Data_in                           0x08012273   Thumb Code    32  algbloc.o(.text)
    AlgCicleTimeInc                          0x08012293   Thumb Code    10  algbloc.o(.text)
    AlgLostModbusPacket                      0x0801229d   Thumb Code     8  algbloc.o(.text)
    AlgLostModbusPacketU4                    0x080122a5   Thumb Code     6  algbloc.o(.text)
    WriteCnfAdcFloat                         0x080122ab   Thumb Code    16  algbloc.o(.text)
    Write_data_in_mask_IP                    0x080122c9   Thumb Code    56  udp_server.o(.text)
    Write_data_in_mask_RP                    0x08012301   Thumb Code    76  udp_server.o(.text)
    Write_data_in_mask_AO                    0x0801234d   Thumb Code    50  udp_server.o(.text)
    Write_data_in_mask_DO                    0x0801237f   Thumb Code    48  udp_server.o(.text)
    vUDP_serv_recv                           0x080123af   Thumb Code   316  udp_server.o(.text)
    UDP_send                                 0x080124eb   Thumb Code   144  udp_server.o(.text)
    SetDestPort                              0x0801257b   Thumb Code     6  udp_server.o(.text)
    FTP_QUIT_OR_WRONG_REQUEST                0x0801258d   Thumb Code    50  ftp_server.o(.text)
    FTP_Read_File                            0x080125bf   Thumb Code   182  ftp_server.o(.text)
    FTP_OpenDataPort                         0x08012675   Thumb Code    44  ftp_server.o(.text)
    FTP_Write_File                           0x080126a1   Thumb Code   204  ftp_server.o(.text)
    FTP_Read_List_Of_Files                   0x0801276d   Thumb Code   458  ftp_server.o(.text)
    FTP_CWD                                  0x08012937   Thumb Code   496  ftp_server.o(.text)
    FTP_PWD                                  0x08012b27   Thumb Code    68  ftp_server.o(.text)
    vBasicFTPServer                          0x080130ff   Thumb Code   152  ftp_server.o(.text)
    rs485_DMASend_n1                         0x080131e5   Thumb Code   140  usart1.o(.text)
    v_rs485_task_n1                          0x08013271   Thumb Code   694  usart1.o(.text)
    modbus_IRQ_n1                            0x08013527   Thumb Code    78  usart1.o(.text)
    timer_IRQ_n1                             0x08013575   Thumb Code    52  usart1.o(.text)
    USART_time_reset_n1                      0x080135a9   Thumb Code    12  usart1.o(.text)
    rs485_DMASend_n12                        0x080135b5   Thumb Code   102  usart1.o(.text)
    InitUsart_rs485_n1                       0x0801361b   Thumb Code   206  usart1.o(.text)
    set_rs485_config_v1                      0x080136e9   Thumb Code    34  usart1.o(.text)
    rs485_DMASend_n2                         0x08013731   Thumb Code   128  usart2.o(.text)
    v_rs485_task_n2                          0x080137b1   Thumb Code   696  usart2.o(.text)
    modbus_IRQ_n2                            0x08013a69   Thumb Code    78  usart2.o(.text)
    timer_IRQ_n2                             0x08013ab7   Thumb Code    52  usart2.o(.text)
    USART_time_reset_n2                      0x08013aeb   Thumb Code    12  usart2.o(.text)
    InitUsart_rs485_n2                       0x08013af7   Thumb Code   268  usart2.o(.text)
    set_rs485_config_v2                      0x08013c03   Thumb Code    34  usart2.o(.text)
    rs485_DMASend_n3                         0x08013c49   Thumb Code   140  usart3.o(.text)
    v_rs485_task_n3                          0x08013cd5   Thumb Code   702  usart3.o(.text)
    modbus_IRQ_n3                            0x08013f93   Thumb Code    78  usart3.o(.text)
    timer_IRQ_n3                             0x08013fe1   Thumb Code    52  usart3.o(.text)
    USART_time_reset_n3                      0x08014015   Thumb Code    12  usart3.o(.text)
    rs485_DMASend_n33                        0x08014021   Thumb Code    72  usart3.o(.text)
    InitUsart_rs485_n3                       0x08014069   Thumb Code   218  usart3.o(.text)
    InitTIM6                                 0x08014143   Thumb Code   108  usart3.o(.text)
    set_rs485_config_v3                      0x080141af   Thumb Code    34  usart3.o(.text)
    rs485_Send_n4                            0x08014201   Thumb Code   152  usart4.o(.text)
    v_rs485_task_n4                          0x08014299   Thumb Code   504  usart4.o(.text)
    timer_IRQ_n4                             0x08014491   Thumb Code    52  usart4.o(.text)
    modbus_IRQ_n4                            0x080144c5   Thumb Code    78  usart4.o(.text)
    rs485_Send_n42                           0x08014513   Thumb Code    64  usart4.o(.text)
    InitUsart_rs485_n4                       0x08014553   Thumb Code   236  usart4.o(.text)
    uart_print                               0x0801463f   Thumb Code    16  usart4.o(.text)
    set_rs485_config_v4                      0x0801464f   Thumb Code    34  usart4.o(.text)
    Chk_CRC                                  0x0801468d   Thumb Code   130  modbus.o(.text)
    Chk_mb_packet                            0x0801470f   Thumb Code   126  modbus.o(.text)
    Create_mb_packet                         0x0801478d   Thumb Code   124  modbus.o(.text)
    netconn_rcv_req                          0x08014809   Thumb Code    70  utilities.o(.text)
    uitoa                                    0x0801484f   Thumb Code    62  utilities.o(.text)
    read_cmd                                 0x0801488d   Thumb Code   184  utilities.o(.text)
    read_ip4_addr                            0x08014945   Thumb Code   158  utilities.o(.text)
    read_mac_addr                            0x080149e3   Thumb Code   198  utilities.o(.text)
    __aeabi_memcpy                           0x08014aa9   Thumb Code    36  memcpya.o(.text)
    __aeabi_memcpy4                          0x08014aa9   Thumb Code     0  memcpya.o(.text)
    __aeabi_memcpy8                          0x08014aa9   Thumb Code     0  memcpya.o(.text)
    __aeabi_memset                           0x08014acd   Thumb Code    14  memseta.o(.text)
    __aeabi_memset4                          0x08014acd   Thumb Code     0  memseta.o(.text)
    __aeabi_memset8                          0x08014acd   Thumb Code     0  memseta.o(.text)
    __aeabi_memclr                           0x08014adb   Thumb Code     4  memseta.o(.text)
    __aeabi_memclr4                          0x08014adb   Thumb Code     0  memseta.o(.text)
    __aeabi_memclr8                          0x08014adb   Thumb Code     0  memseta.o(.text)
    _memset$wrapper                          0x08014adf   Thumb Code    18  memseta.o(.text)
    strcat                                   0x08014af1   Thumb Code    24  strcat.o(.text)
    strstr                                   0x08014b09   Thumb Code    36  strstr.o(.text)
    strncpy                                  0x08014b2d   Thumb Code    24  strncpy.o(.text)
    strchr                                   0x08014b45   Thumb Code    20  strchr.o(.text)
    strlen                                   0x08014b59   Thumb Code    14  strlen.o(.text)
    memcmp                                   0x08014b67   Thumb Code    26  memcmp.o(.text)
    strncat                                  0x08014b81   Thumb Code    40  strncat.o(.text)
    strcpy                                   0x08014ba9   Thumb Code    18  strcpy.o(.text)
    strncmp                                  0x08014bbb   Thumb Code    30  strncmp.o(.text)
    strtol                                   0x08014bd9   Thumb Code   112  strtol.o(.text)
    strtoul                                  0x08014c49   Thumb Code   114  strtoul.o(.text)
    atoi                                     0x08014cbb   Thumb Code    26  atoi.o(.text)
    __aeabi_d2f                              0x08014cd5   Thumb Code    56  d2f.o(.text)
    __aeabi_uidiv                            0x08014d0d   Thumb Code     0  uidiv.o(.text)
    __aeabi_uidivmod                         0x08014d0d   Thumb Code    44  uidiv.o(.text)
    __rt_ctype_table                         0x08014d39   Thumb Code     4  ctype_o.o(.text)
    isspace                                  0x08014d41   Thumb Code    18  isspace_o.o(.text)
    _strtoul                                 0x08014d53   Thumb Code   158  _strtoul.o(.text)
    __strtod_int                             0x08014e27   Thumb Code    88  strtod.o(.text)
    __I$use$fp                               0x08014e8d   Thumb Code     0  iusefp.o(.text)
    _float_round                             0x08014e8d   Thumb Code    18  fepilogue.o(.text)
    _float_epilogue                          0x08014e9f   Thumb Code    92  fepilogue.o(.text)
    __aeabi_dmul                             0x08014efb   Thumb Code   228  dmul.o(.text)
    __aeabi_ddiv                             0x08014fdf   Thumb Code   222  ddiv.o(.text)
    __scatterload                            0x080150bd   Thumb Code    28  init.o(.text)
    __scatterload_rt2                        0x080150bd   Thumb Code     0  init.o(.text)
    __aeabi_llsl                             0x080150e1   Thumb Code    30  llshl.o(.text)
    _ll_shift_l                              0x080150e1   Thumb Code     0  llshl.o(.text)
    __aeabi_llsr                             0x080150ff   Thumb Code    32  llushr.o(.text)
    _ll_ushift_r                             0x080150ff   Thumb Code     0  llushr.o(.text)
    _chval                                   0x0801511f   Thumb Code    28  _chval.o(.text)
    _scanf_real                              0x0801523d   Thumb Code     0  scanf_fp.o(.text)
    _scanf_really_real                       0x0801523d   Thumb Code   556  scanf_fp.o(.text)
    _sgetc                                   0x08015475   Thumb Code    30  _sgetc.o(.text)
    _sbackspace                              0x08015493   Thumb Code    34  _sgetc.o(.text)
    _double_round                            0x080154b5   Thumb Code    26  depilogue.o(.text)
    _double_epilogue                         0x080154cf   Thumb Code   156  depilogue.o(.text)
    __aeabi_ul2d                             0x0801556b   Thumb Code    24  dfltul.o(.text)
    __decompress                             0x08015583   Thumb Code     0  __dczerorl2.o(.text)
    __decompress1                            0x08015583   Thumb Code    86  __dczerorl2.o(.text)
    __0sprintf$3                             0x080155d9   Thumb Code    34  printf3.o(i.__0sprintf$3)
    __1sprintf$3                             0x080155d9   Thumb Code     0  printf3.o(i.__0sprintf$3)
    __2sprintf                               0x080155d9   Thumb Code     0  printf3.o(i.__0sprintf$3)
    __aeabi_errno_addr                       0x08015601   Thumb Code     4  errno.o(i.__aeabi_errno_addr)
    __rt_errno_addr                          0x08015601   Thumb Code     0  errno.o(i.__aeabi_errno_addr)
    __hardfp_atof                            0x08015609   Thumb Code    44  atof.o(i.__hardfp_atof)
    __read_errno                             0x08015641   Thumb Code     6  errno.o(i.__read_errno)
    __scatterload_copy                       0x0801564d   Thumb Code    14  handlers.o(i.__scatterload_copy)
    __scatterload_null                       0x0801565b   Thumb Code     2  handlers.o(i.__scatterload_null)
    __scatterload_zeroinit                   0x0801565d   Thumb Code    14  handlers.o(i.__scatterload_zeroinit)
    __set_errno                              0x0801566d   Thumb Code     6  errno.o(i.__set_errno)
    _is_digit                                0x08015679   Thumb Code    14  scanf_fp.o(i._is_digit)
    tcp_persist_backoff                      0x080158ec   Data           7  tcp.o(.constdata)
    tcp_state_str                            0x080158f4   Data          44  tcp.o(.constdata)
    tcp_backoff                              0x08015920   Data          13  tcp.o(.constdata)
    tcp_pcb_lists                            0x08015930   Data          16  tcp.o(.constdata)
    ip_addr_any                              0x08015940   Data           4  ip_addr.o(.constdata)
    ip_addr_broadcast                        0x08015944   Data           4  ip_addr.o(.constdata)
    ethbroadcast                             0x08015948   Data           6  etharp.o(.constdata)
    ethzero                                  0x0801594e   Data           6  etharp.o(.constdata)
    __ctype_table                            0x080159e8   Data         129  ctype_o.o(.constdata)
    Region$$Table$$Base                      0x08015b68   Number         0  anon$$obj.o(Region$$Table)
    Region$$Table$$Limit                     0x08015b88   Number         0  anon$$obj.o(Region$$Table)
    SystemCoreClock                          0x20000000   Data           4  system_stm32f4xx.o(.data)
    AHBPrescTable                            0x20000004   Data          16  system_stm32f4xx.o(.data)
    netif_list                               0x20000040   Data           4  netif.o(.data)
    netif_default                            0x20000044   Data           4  netif.o(.data)
    tcp_active_pcbs_changed                  0x2000004c   Data           1  tcp.o(.data)
    tcp_ticks                                0x20000058   Data           4  tcp.o(.data)
    tcp_bound_pcbs                           0x2000005c   Data           4  tcp.o(.data)
    tcp_listen_pcbs                          0x20000060   Data           4  tcp.o(.data)
    tcp_active_pcbs                          0x20000064   Data           4  tcp.o(.data)
    tcp_tw_pcbs                              0x20000068   Data           4  tcp.o(.data)
    tcp_tmp_pcb                              0x2000006c   Data           4  tcp.o(.data)
    tcp_input_pcb                            0x20000088   Data           4  tcp_in.o(.data)
    udp_pcbs                                 0x20000098   Data           4  udp.o(.data)
    current_netif                            0x200000a0   Data           4  ip.o(.data)
    current_header                           0x200000a4   Data           4  ip.o(.data)
    current_iphdr_src                        0x200000a8   Data           4  ip.o(.data)
    current_iphdr_dest                       0x200000ac   Data           4  ip.o(.data)
    s_xSemaphore                             0x200000b8   Data           4  ethernetif.o(.data)
    DMATxDescToSet                           0x200000d8   Data           4  stm32f4x7_eth.o(.data)
    DMARxDescToGet                           0x200000dc   Data           4  stm32f4x7_eth.o(.data)
    DMA_RX_FRAME_infos                       0x200000e0   Data           4  stm32f4x7_eth.o(.data)
    pxCurrentTCB                             0x200000e8   Data           4  tasks.o(.data)
    TransferError                            0x20000134   Data           1  sdio_sd.o(.data)
    StopCondition                            0x20000140   Data           4  sdio_sd.o(.data)
    TransferEnd                              0x20000144   Data           4  sdio_sd.o(.data)
    DMAEndOfTransfer                         0x20000148   Data           4  sdio_sd.o(.data)
    xMutex_ALGBLOC_RW_DataVar                0x20000154   Data           4  main.o(.data)
    xMutex_ALGBLOC_RW_DataVar_Buf            0x20000158   Data           4  main.o(.data)
    xMutex_USART1_USART3_DmaSend             0x2000015c   Data           4  main.o(.data)
    EthStatus                                0x20000164   Data           4  stm32f4x7_eth_bsp.o(.data)
    ETH_link_xSemaphore                      0x20000168   Data           4  stm32f4x7_eth_bsp.o(.data)
    modbus_lost_flag                         0x20000170   Data           1  algbloc.o(.data)
    modbus_lost_flag_u4                      0x20000171   Data           1  algbloc.o(.data)
    xBinarySemaphoreUSART1StartALG           0x20000178   Data           4  algbloc.o(.data)
    xBinarySemaphoreUSART1sendAD_DD          0x2000017c   Data           4  algbloc.o(.data)
    xBinarySemaphoreUSART1sendDD             0x20000180   Data           4  algbloc.o(.data)
    xBinarySemaphoreUSART1AndDO              0x20000184   Data           4  algbloc.o(.data)
    xBinarySemaphoreUSART2StartALG           0x20000188   Data           4  algbloc.o(.data)
    xBinarySemaphoreUSART2sendAD_DD          0x2000018c   Data           4  algbloc.o(.data)
    xBinarySemaphoreUSART2sendDD             0x20000190   Data           4  algbloc.o(.data)
    xBinarySemaphoreUSART2AndDO              0x20000194   Data           4  algbloc.o(.data)
    xBinarySemaphoreUSART3StartALG           0x20000198   Data           4  algbloc.o(.data)
    xBinarySemaphoreUSART3sendAD_DD          0x2000019c   Data           4  algbloc.o(.data)
    xBinarySemaphoreUSART3sendDD             0x200001a0   Data           4  algbloc.o(.data)
    xBinarySemaphoreUSART3AndDO              0x200001a4   Data           4  algbloc.o(.data)
    xBinarySemaphoreUSART4StartALG           0x200001a8   Data           4  algbloc.o(.data)
    CicleTime                                0x200001ac   Data           4  algbloc.o(.data)
    dest_port_out                            0x200001b2   Data           2  udp_server.o(.data)
    conn                                     0x200001b4   Data           4  udp_server.o(.data)
    buf                                      0x200001b8   Data           4  udp_server.o(.data)
    upcb_send                                0x200001bc   Data           4  udp_server.o(.data)
    xBinarySemaphoreUDPServDestIP            0x200001c0   Data           4  udp_server.o(.data)
    dhcp_rx_options_val                      0x20000230   Data          40  dhcp.o(.bss)
    dhcp_rx_options_given                    0x20000258   Data          10  dhcp.o(.bss)
    ram_heap                                 0x20000262   Data       20500  mem.o(.bss)
    lwip_stats                               0x2000ad80   Data         372  stats.o(.bss)
    DMARxDscrTab                             0x2000afe0   Data         128  stm32f4x7_eth.o(.bss)
    DMATxDscrTab                             0x2000b060   Data         128  stm32f4x7_eth.o(.bss)
    Rx_Buff                                  0x2000b0e0   Data        6096  stm32f4x7_eth.o(.bss)
    Tx_Buff                                  0x2000c8b0   Data        6096  stm32f4x7_eth.o(.bss)
    RX_Frame_Descriptor                      0x2000e080   Data          12  stm32f4x7_eth.o(.bss)
    xQueueRegistry                           0x2000e1d4   Data          64  queue.o(.bss)
    SDCardInfo                               0x20018248   Data          88  sdio_sd.o(.bss)
    SDIO_InitStructure                       0x200182a0   Data          24  sdio_sd.o(.bss)
    SDIO_CmdInitStructure                    0x200182b8   Data          20  sdio_sd.o(.bss)
    SDIO_DataInitStructure                   0x200182cc   Data          24  sdio_sd.o(.bss)
    ETH_InitStructure                        0x200182e4   Data         188  stm32f4x7_eth_bsp.o(.bss)
    xnetif                                   0x200183a0   Data          56  netconf.o(.bss)
    sys_inf_global_value                     0x200183d8   Data          44  algbloc.o(.bss)
    mc_in_out_buf                            0x20018404   Data        3104  algbloc.o(.bss)
    mc_out_buf_read                          0x20019024   Data         272  algbloc.o(.bss)
    adc_func_int2float                       0x20019134   Data        1024  algbloc.o(.bss)
    ALG_global_value                         0x20019534   Data        7072  algbloc.o(.bss)
    RemoteClient                             0x2001b0d4   Data          20  udp_server.o(.bss)
    RS485_ucntrl_n1                          0x2001b0e8   Data         120  usart1.o(.bss)
    RS485_Modbus_n1                          0x2001b160   Data         140  usart1.o(.bss)
    RS485_ucntrl_n2                          0x2001b1ec   Data         120  usart2.o(.bss)
    RS485_Modbus_n2                          0x2001b264   Data         140  usart2.o(.bss)
    RS485_ucntrl_n3                          0x2001b2f0   Data         120  usart3.o(.bss)
    RS485_Modbus_n3                          0x2001b368   Data         140  usart3.o(.bss)
    RS485_ucntrl_n4                          0x2001b3f4   Data         120  usart4.o(.bss)
    RS485_Modbus_n4                          0x2001b46c   Data         140  usart4.o(.bss)
    __initial_sp                             0x2001bcf8   Data           0  startup_stm32f427x.o(STACK)



==============================================================================

Memory Map of the image

  Image Entry point : 0x0800019d

  Load Region LR_IROM1 (Base: 0x08000000, Size: 0x00015d58, Max: 0x00200000, ABSOLUTE, COMPRESSED[0x00015bbc])

    Execution Region ER_IROM1 (Base: 0x08000000, Size: 0x00015b88, Max: 0x00200000, ABSOLUTE)

    Base Addr    Size         Type   Attr      Idx    E Section Name        Object

    0x08000000   0x0000019c   Data   RO          145    RESET               startup_stm32f427x.o
    0x0800019c   0x00000000   Code   RO         1917  * .ARM.Collect$$$$00000000  mc_w.l(entry.o)
    0x0800019c   0x00000004   Code   RO         2213    .ARM.Collect$$$$00000001  mc_w.l(entry2.o)
    0x080001a0   0x00000004   Code   RO         2216    .ARM.Collect$$$$00000004  mc_w.l(entry5.o)
    0x080001a4   0x00000000   Code   RO         2218    .ARM.Collect$$$$00000008  mc_w.l(entry7b.o)
    0x080001a4   0x00000000   Code   RO         2220    .ARM.Collect$$$$0000000A  mc_w.l(entry8b.o)
    0x080001a4   0x00000008   Code   RO         2221    .ARM.Collect$$$$0000000B  mc_w.l(entry9a.o)
    0x080001ac   0x00000000   Code   RO         2223    .ARM.Collect$$$$0000000D  mc_w.l(entry10a.o)
    0x080001ac   0x00000000   Code   RO         2225    .ARM.Collect$$$$0000000F  mc_w.l(entry11a.o)
    0x080001ac   0x00000004   Code   RO         2214    .ARM.Collect$$$$00002712  mc_w.l(entry2.o)
    0x080001b0   0x000000a8   Code   RO         1231    .emb_text           port.o
    0x08000258   0x000004e0   Code   RO            3    .text               system_stm32f4xx.o
    0x08000738   0x00000024   Code   RO          146    .text               startup_stm32f427x.o
    0x0800075c   0x000004e0   Code   RO          150    .text               api_lib.o
    0x08000c3c   0x00000bd4   Code   RO          292    .text               api_msg.o
    0x08001810   0x0000012e   Code   RO          326    .text               netbuf.o
    0x0800193e   0x00000002   PAD
    0x08001940   0x00000f9c   Code   RO          360    .text               sockets.o
    0x080028dc   0x00000274   Code   RO          382    .text               tcpip.o
    0x08002b50   0x00000010   Code   RO          415    .text               def.o
    0x08002b60   0x00000da4   Code   RO          428    .text               dhcp.o
    0x08003904   0x0000002a   Code   RO          472    .text               init.o
    0x0800392e   0x00000002   PAD
    0x08003930   0x00000328   Code   RO          506    .text               mem.o
    0x08003c58   0x00000100   Code   RO          522    .text               memp.o
    0x08003d58   0x00000208   Code   RO          554    .text               netif.o
    0x08003f60   0x000004e6   Code   RO          577    .text               pbuf.o
    0x08004446   0x00000002   PAD
    0x08004448   0x00000170   Code   RO          593    .text               raw.o
    0x080045b8   0x0000003c   Code   RO          607    .text               stats.o
    0x080045f4   0x00000a40   Code   RO          642    .text               tcp.o
    0x08005034   0x00000c6c   Code   RO          670    .text               tcp_in.o
    0x08005ca0   0x00000a4c   Code   RO          696    .text               tcp_out.o
    0x080066ec   0x000001c0   Code   RO          708    .text               timers.o
    0x080068ac   0x000003e8   Code   RO          746    .text               udp.o
    0x08006c94   0x000001cc   Code   RO          781    .text               icmp.o
    0x08006e60   0x000001ce   Code   RO          805    .text               inet_chksum.o
    0x0800702e   0x00000002   PAD
    0x08007030   0x000002f8   Code   RO          817    .text               ip.o
    0x08007328   0x000001e0   Code   RO          835    .text               ip_addr.o
    0x08007508   0x0000070c   Code   RO          865    .text               etharp.o
    0x08007c14   0x00000320   Code   RO          888    .text               ethernetif.o
    0x08007f34   0x0000024c   Code   RO          925    .text               sys_arch.o
    0x08008180   0x000000b0   Code   RO          947    .text               misc.o
    0x08008230   0x00000320   Code   RO          971    .text               stm32f4xx_dma.o
    0x08008550   0x000000e8   Code   RO          991    .text               stm32f4xx_exti.o
    0x08008638   0x000006f0   Code   RO         1032    .text               stm32f4xx_fmc.o
    0x08008d28   0x00000218   Code   RO         1052    .text               stm32f4xx_gpio.o
    0x08008f40   0x00000470   Code   RO         1072    .text               stm32f4xx_rcc.o
    0x080093b0   0x000001b8   Code   RO         1094    .text               stm32f4xx_sdio.o
    0x08009568   0x00000078   Code   RO         1114    .text               stm32f4xx_syscfg.o
    0x080095e0   0x0000033c   Code   RO         1134    .text               stm32f4xx_usart.o
    0x0800991c   0x00000a48   Code   RO         1157    .text               stm32f4xx_rtc.o
    0x0800a364   0x000009dc   Code   RO         1178    .text               stm32f4xx_tim.o
    0x0800ad40   0x00000cc8   Code   RO         1199    .text               stm32f4x7_eth.o
    0x0800ba08   0x000000cc   Code   RO         1232    .text               port.o
    0x0800bad4   0x00000848   Code   RO         1253    .text               tasks.o
    0x0800c31c   0x0000008e   Code   RO         1302    .text               list.o
    0x0800c3aa   0x00000002   PAD
    0x0800c3ac   0x00000618   Code   RO         1320    .text               queue.o
    0x0800c9c4   0x00000144   Code   RO         1338    .text               heap_4.o
    0x0800cb08   0x0000178c   Code   RO         1355    .text               sdio_sd.o
    0x0800e294   0x00001b6c   Code   RO         1383    .text               ff.o
    0x0800fe00   0x0000004c   Code   RO         1425    .text               fattime.o
    0x0800fe4c   0x0000012e   Code   RO         1448    .text               diskio.o
    0x0800ff7a   0x00000002   PAD
    0x0800ff7c   0x000003c8   Code   RO         1468    .text               main.o
    0x08010344   0x000003a8   Code   RO         1524    .text               stm32f4xx_it.o
    0x080106ec   0x000003dc   Code   RO         1549    .text               stm32f4x7_eth_bsp.o
    0x08010ac8   0x000000a0   Code   RO         1582    .text               netconf.o
    0x08010b68   0x00000a0c   Code   RO         1624    .text               sys_config.o
    0x08011574   0x00000d54   Code   RO         1655    .text               algbloc.o
    0x080122c8   0x000002c4   Code   RO         1691    .text               udp_server.o
    0x0801258c   0x00000c58   Code   RO         1723    .text               ftp_server.o
    0x080131e4   0x0000054c   Code   RO         1763    .text               usart1.o
    0x08013730   0x00000518   Code   RO         1797    .text               usart2.o
    0x08013c48   0x000005b8   Code   RO         1821    .text               usart3.o
    0x08014200   0x0000048c   Code   RO         1845    .text               usart4.o
    0x0801468c   0x0000017c   Code   RO         1869    .text               modbus.o
    0x08014808   0x000002a0   Code   RO         1889    .text               utilities.o
    0x08014aa8   0x00000024   Code   RO         1920    .text               mc_w.l(memcpya.o)
    0x08014acc   0x00000024   Code   RO         1922    .text               mc_w.l(memseta.o)
    0x08014af0   0x00000018   Code   RO         1924    .text               mc_w.l(strcat.o)
    0x08014b08   0x00000024   Code   RO         1926    .text               mc_w.l(strstr.o)
    0x08014b2c   0x00000018   Code   RO         1928    .text               mc_w.l(strncpy.o)
    0x08014b44   0x00000014   Code   RO         1930    .text               mc_w.l(strchr.o)
    0x08014b58   0x0000000e   Code   RO         1932    .text               mc_w.l(strlen.o)
    0x08014b66   0x0000001a   Code   RO         1934    .text               mc_w.l(memcmp.o)
    0x08014b80   0x00000028   Code   RO         1936    .text               mc_w.l(strncat.o)
    0x08014ba8   0x00000012   Code   RO         1938    .text               mc_w.l(strcpy.o)
    0x08014bba   0x0000001e   Code   RO         1940    .text               mc_w.l(strncmp.o)
    0x08014bd8   0x00000070   Code   RO         2205    .text               mc_w.l(strtol.o)
    0x08014c48   0x00000072   Code   RO         2207    .text               mc_w.l(strtoul.o)
    0x08014cba   0x0000001a   Code   RO         2209    .text               mc_w.l(atoi.o)
    0x08014cd4   0x00000038   Code   RO         2211    .text               mf_w.l(d2f.o)
    0x08014d0c   0x0000002c   Code   RO         2230    .text               mc_w.l(uidiv.o)
    0x08014d38   0x00000008   Code   RO         2234    .text               mc_w.l(ctype_o.o)
    0x08014d40   0x00000012   Code   RO         2256    .text               mc_w.l(isspace_o.o)
    0x08014d52   0x0000009e   Code   RO         2269    .text               mc_w.l(_strtoul.o)
    0x08014df0   0x0000009c   Code   RO         2271    .text               mc_w.l(strtod.o)
    0x08014e8c   0x00000000   Code   RO         2273    .text               mc_w.l(iusefp.o)
    0x08014e8c   0x0000006e   Code   RO         2274    .text               mf_w.l(fepilogue.o)
    0x08014efa   0x000000e4   Code   RO         2278    .text               mf_w.l(dmul.o)
    0x08014fde   0x000000de   Code   RO         2280    .text               mf_w.l(ddiv.o)
    0x080150bc   0x00000024   Code   RO         2286    .text               mc_w.l(init.o)
    0x080150e0   0x0000001e   Code   RO         2289    .text               mc_w.l(llshl.o)
    0x080150fe   0x00000020   Code   RO         2291    .text               mc_w.l(llushr.o)
    0x0801511e   0x0000001c   Code   RO         2297    .text               mc_w.l(_chval.o)
    0x0801513a   0x00000002   PAD
    0x0801513c   0x00000338   Code   RO         2299    .text               mc_w.l(scanf_fp.o)
    0x08015474   0x00000040   Code   RO         2303    .text               mc_w.l(_sgetc.o)
    0x080154b4   0x000000b6   Code   RO         2306    .text               mf_w.l(depilogue.o)
    0x0801556a   0x00000018   Code   RO         2311    .text               mf_w.l(dfltul.o)
    0x08015582   0x00000056   Code   RO         2321    .text               mc_w.l(__dczerorl2.o)
    0x080155d8   0x00000028   Code   RO         2035    i.__0sprintf$3      mc_w.l(printf3.o)
    0x08015600   0x00000008   Code   RO         2262    i.__aeabi_errno_addr  mc_w.l(errno.o)
    0x08015608   0x00000038   Code   RO         1911    i.__hardfp_atof     m_wm.l(atof.o)
    0x08015640   0x0000000c   Code   RO         2263    i.__read_errno      mc_w.l(errno.o)
    0x0801564c   0x0000000e   Code   RO         2315    i.__scatterload_copy  mc_w.l(handlers.o)
    0x0801565a   0x00000002   Code   RO         2316    i.__scatterload_null  mc_w.l(handlers.o)
    0x0801565c   0x0000000e   Code   RO         2317    i.__scatterload_zeroinit  mc_w.l(handlers.o)
    0x0801566a   0x00000002   PAD
    0x0801566c   0x0000000c   Code   RO         2264    i.__set_errno       mc_w.l(errno.o)
    0x08015678   0x0000000e   Code   RO         2301    i._is_digit         mc_w.l(scanf_fp.o)
    0x08015686   0x00000002   PAD
    0x08015688   0x000001b8   Code   RO         2040    i._printf_core      mc_w.l(printf3.o)
    0x08015840   0x0000000a   Code   RO         2042    i._sputc            mc_w.l(printf3.o)
    0x0801584a   0x00000002   PAD
    0x0801584c   0x00000040   Data   RO          362    .constdata          sockets.o
    0x0801588c   0x00000030   Data   RO          524    .constdata          memp.o
    0x080158bc   0x00000030   Data   RO          609    .constdata          stats.o
    0x080158ec   0x00000054   Data   RO          643    .constdata          tcp.o
    0x08015940   0x00000004   Data   RO          837    .constdata          ip_addr.o
    0x08015944   0x00000004   Data   RO          838    .constdata          ip_addr.o
    0x08015948   0x0000000c   Data   RO          867    .constdata          etharp.o
    0x08015954   0x00000014   Data   RO         1255    .constdata          tasks.o
    0x08015968   0x00000080   Data   RO         1384    .constdata          ff.o
    0x080159e8   0x00000081   Data   RO         2235    .constdata          mc_w.l(ctype_o.o)
    0x08015a69   0x00000003   PAD
    0x08015a6c   0x00000004   Data   RO         2236    .constdata          mc_w.l(ctype_o.o)
    0x08015a70   0x00000088   Data   RO          610    .conststring        stats.o
    0x08015af8   0x0000006d   Data   RO          644    .conststring        tcp.o
    0x08015b65   0x00000003   PAD
    0x08015b68   0x00000020   Data   RO         2313    Region$$Table       anon$$obj.o


    Execution Region RW_IRAM2 (Base: 0x10000000, Size: 0x00000000, Max: 0x00010000, ABSOLUTE)

    **** No section assigned to this execution region ****


    Execution Region RW_IRAM1 (Base: 0x20000000, Size: 0x0001bcf8, Max: 0x00030000, ABSOLUTE, COMPRESSED[0x00000034])

    Base Addr    Size         Type   Attr      Idx    E Section Name        Object

    0x20000000   0x00000014   Data   RW            4    .data               system_stm32f4xx.o
    0x20000014   0x00000008   Data   RW          363    .data               sockets.o
    0x2000001c   0x0000000c   Data   RW          383    .data               tcpip.o
    0x20000028   0x00000004   Data   RW          430    .data               dhcp.o
    0x2000002c   0x00000010   Data   RW          508    .data               mem.o
    0x2000003c   0x0000000c   Data   RW          555    .data               netif.o
    0x20000048   0x00000004   Data   RW          594    .data               raw.o
    0x2000004c   0x00000024   Data   RW          645    .data               tcp.o
    0x20000070   0x0000001c   Data   RW          672    .data               tcp_in.o
    0x2000008c   0x00000008   Data   RW          709    .data               timers.o
    0x20000094   0x00000008   Data   RW          747    .data               udp.o
    0x2000009c   0x00000014   Data   RW          818    .data               ip.o
    0x200000b0   0x00000001   Data   RW          868    .data               etharp.o
    0x200000b1   0x00000003   PAD
    0x200000b4   0x00000012   Data   RW          889    .data               ethernetif.o
    0x200000c6   0x00000002   Data   RW          926    .data               sys_arch.o
    0x200000c8   0x00000010   Data   RW         1073    .data               stm32f4xx_rcc.o
    0x200000d8   0x0000000c   Data   RW         1205    .data               stm32f4x7_eth.o
    0x200000e4   0x00000004   Data   RW         1233    .data               port.o
    0x200000e8   0x0000003c   Data   RW         1256    .data               tasks.o
    0x20000124   0x00000010   Data   RW         1340    .data               heap_4.o
    0x20000134   0x00000018   Data   RW         1357    .data               sdio_sd.o
    0x2000014c   0x00000008   Data   RW         1385    .data               ff.o
    0x20000154   0x0000000c   Data   RW         1469    .data               main.o
    0x20000160   0x00000001   Data   RW         1525    .data               stm32f4xx_it.o
    0x20000161   0x00000003   PAD
    0x20000164   0x00000008   Data   RW         1551    .data               stm32f4x7_eth_bsp.o
    0x2000016c   0x00000004   Data   RW         1584    .data               netconf.o
    0x20000170   0x00000040   Data   RW         1659    .data               algbloc.o
    0x200001b0   0x00000014   Data   RW         1693    .data               udp_server.o
    0x200001c4   0x00000008   Data   RW         1724    .data               ftp_server.o
    0x200001cc   0x00000004   Data   RW         2265    .data               mc_w.l(errno.o)
    0x200001d0   0x00000060   Zero   RW          361    .bss                sockets.o
    0x20000230   0x00000032   Zero   RW          429    .bss                dhcp.o
    0x20000262   0x00005014   Zero   RW          507    .bss                mem.o
    0x20005276   0x00000002   PAD
    0x20005278   0x00005b07   Zero   RW          523    .bss                memp.o
    0x2000ad7f   0x00000001   PAD
    0x2000ad80   0x00000174   Zero   RW          608    .bss                stats.o
    0x2000aef4   0x00000014   Zero   RW          671    .bss                tcp_in.o
    0x2000af08   0x00000010   Zero   RW          836    .bss                ip_addr.o
    0x2000af18   0x000000c8   Zero   RW          866    .bss                etharp.o
    0x2000afe0   0x00000080   Zero   RW         1200    .bss                stm32f4x7_eth.o
    0x2000b060   0x00000080   Zero   RW         1201    .bss                stm32f4x7_eth.o
    0x2000b0e0   0x000017d0   Zero   RW         1202    .bss                stm32f4x7_eth.o
    0x2000c8b0   0x000017d0   Zero   RW         1203    .bss                stm32f4x7_eth.o
    0x2000e080   0x0000000c   Zero   RW         1204    .bss                stm32f4x7_eth.o
    0x2000e08c   0x00000148   Zero   RW         1254    .bss                tasks.o
    0x2000e1d4   0x00000040   Zero   RW         1321    .bss                queue.o
    0x2000e214   0x00000004   PAD
    0x2000e218   0x0000a000   Zero   RW         1339    .bss                heap_4.o
    0x20018218   0x000000cc   Zero   RW         1356    .bss                sdio_sd.o
    0x200182e4   0x000000bc   Zero   RW         1550    .bss                stm32f4x7_eth_bsp.o
    0x200183a0   0x00000038   Zero   RW         1583    .bss                netconf.o
    0x200183d8   0x00002cfc   Zero   RW         1657    .bss                algbloc.o
    0x2001b0d4   0x00000014   Zero   RW         1692    .bss                udp_server.o
    0x2001b0e8   0x00000104   Zero   RW         1764    .bss                usart1.o
    0x2001b1ec   0x00000104   Zero   RW         1798    .bss                usart2.o
    0x2001b2f0   0x00000104   Zero   RW         1822    .bss                usart3.o
    0x2001b3f4   0x00000104   Zero   RW         1846    .bss                usart4.o
    0x2001b4f8   0x00000800   Zero   RW          143    STACK               startup_stm32f427x.o


==============================================================================

Image component sizes


      Code (inc. data)   RO Data    RW Data    ZI Data      Debug   Object Name

      3412        104          0         64      11516      10552   algbloc.o
      1248         44          0          0          0      44464   api_lib.o
      3028         50          0          0          0       8789   api_msg.o
        16          0          0          0          0       1312   def.o
      3492         56          0          4         50      17076   dhcp.o
       302          0          0          0          0       2522   diskio.o
      1804         34         12          1        200       8545   etharp.o
       800         56          0         18          0      40026   ethernetif.o
        76          0          0          0          0        594   fattime.o
      7020         62        128          8          0      25754   ff.o
      3160        792          0          8          0      35469   ftp_server.o
       324          8          0         16      40960       3040   heap_4.o
       460         14          0          0          0       2079   icmp.o
       462          0          0          0          0       2617   inet_chksum.o
        42          0          0          0          0      10205   init.o
       760         18          0         20          0       5907   ip.o
       480         12          8          0         16       9075   ip_addr.o
       142          0          0          0          0       3290   list.o
       968        548          0         12          0       6981   main.o
       808         14          0         16      20500       3702   mem.o
       256         14         48          0      23303       2850   memp.o
       176         12          0          0          0       1925   misc.o
       380          0          0          0          0       1769   modbus.o
       302          0          0          0          0       7801   netbuf.o
       160         30          0          4         56       3520   netconf.o
       520         12          0         12          0       6091   netif.o
      1254          0          0          0          0       6703   pbuf.o
       372         32          0          4          0       5148   port.o
      1560          6          0          0         64       9469   queue.o
       368         12          0          4          0       3065   raw.o
      6028        112          0         24        204      24600   sdio_sd.o
      3996         52         64          8         96      19022   sockets.o
        36          8        412          0       2048        816   startup_stm32f427x.o
        60         12        184          0        372       3970   stats.o
      3272        136          0         12      12460      19311   stm32f4x7_eth.o
       988         58          0          8        188       5259   stm32f4x7_eth_bsp.o
       800         32          0          0          0       6161   stm32f4xx_dma.o
       232          8          0          0          0       2359   stm32f4xx_exti.o
      1776         12          0          0          0       7256   stm32f4xx_fmc.o
       536         38          0          0          0       3881   stm32f4xx_gpio.o
       936         74          0          1          0       3566   stm32f4xx_it.o
      1136         52          0         16          0      11590   stm32f4xx_rcc.o
      2632         40          0          0          0      13986   stm32f4xx_rtc.o
       440         14          0          0          0       7112   stm32f4xx_sdio.o
       120         18          0          0          0       1663   stm32f4xx_syscfg.o
      2524         52          0          0          0      18410   stm32f4xx_tim.o
       828         26          0          0          0       7044   stm32f4xx_usart.o
       588          8          0          2          0       5070   sys_arch.o
      2572        410          0          0          0       3994   sys_config.o
      1248         78          0         20          0     375143   system_stm32f4xx.o
      2120         66         20         60        328      12331   tasks.o
      2624         52        193         36          0      19881   tcp.o
      3180         94          0         28         20      14191   tcp_in.o
      2636         22          0          0          0       7219   tcp_out.o
       628         32          0         12          0       9428   tcpip.o
       448         28          0          8          0       3095   timers.o
      1000         18          0          8          0      13449   udp.o
       708         12          0         20         20       7803   udp_server.o
      1356         56          0          0        260      31059   usart1.o
      1304         52          0          0        260       4317   usart2.o
      1464         62          0          0        260       4809   usart3.o
      1164         26          0          0        260       4267   usart4.o
       672          0          0          0          0       2945   utilities.o

    ----------------------------------------------------------------------
     84216       3690       1104        460     113448     965347   Object Totals
         0          0         32          0          0          0   (incl. Generated)
        12          0          3          6          7          0   (incl. Padding)

    ----------------------------------------------------------------------

      Code (inc. data)   RO Data    RW Data    ZI Data      Debug   Library Member Name

        56         12          0          0          0        132   atof.o
        86          0          0          0          0          0   __dczerorl2.o
        28          0          0          0          0         68   _chval.o
        64          0          0          0          0         84   _sgetc.o
       158          0          0          0          0         92   _strtoul.o
        26          0          0          0          0         80   atoi.o
         8          4        133          0          0         68   ctype_o.o
         0          0          0          0          0          0   entry.o
         0          0          0          0          0          0   entry10a.o
         0          0          0          0          0          0   entry11a.o
         8          4          0          0          0          0   entry2.o
         4          0          0          0          0          0   entry5.o
         0          0          0          0          0          0   entry7b.o
         0          0          0          0          0          0   entry8b.o
         8          4          0          0          0          0   entry9a.o
        32         16          0          4          0        204   errno.o
        30          0          0          0          0          0   handlers.o
        36          8          0          0          0         68   init.o
        18          0          0          0          0         76   isspace_o.o
         0          0          0          0          0          0   iusefp.o
        30          0          0          0          0         68   llshl.o
        32          0          0          0          0         68   llushr.o
        26          0          0          0          0         80   memcmp.o
        36          0          0          0          0         68   memcpya.o
        36          0          0          0          0        108   memseta.o
       490         10          0          0          0        252   printf3.o
       838         12          0          0          0        216   scanf_fp.o
        24          0          0          0          0         68   strcat.o
        20          0          0          0          0         68   strchr.o
        18          0          0          0          0         68   strcpy.o
        14          0          0          0          0         68   strlen.o
        40          0          0          0          0         76   strncat.o
        30          0          0          0          0         80   strncmp.o
        24          0          0          0          0         76   strncpy.o
        36          0          0          0          0         80   strstr.o
       156         14          0          0          0        120   strtod.o
       112          0          0          0          0         88   strtol.o
       114          0          0          0          0         92   strtoul.o
        44          0          0          0          0         80   uidiv.o
        56          0          0          0          0         88   d2f.o
       222          0          0          0          0        100   ddiv.o
       182          0          0          0          0        176   depilogue.o
        24          0          0          0          0         76   dfltul.o
       228          0          0          0          0         96   dmul.o
       110          0          0          0          0        168   fepilogue.o

    ----------------------------------------------------------------------
      3512         84        136          4          0       3400   Library Totals
         8          0          3          0          0          0   (incl. Padding)

    ----------------------------------------------------------------------

      Code (inc. data)   RO Data    RW Data    ZI Data      Debug   Library Name

        56         12          0          0          0        132   m_wm.l
      2626         72        133          4          0       2564   mc_w.l
       822          0          0          0          0        704   mf_w.l

    ----------------------------------------------------------------------
      3512         84        136          4          0       3400   Library Totals

    ----------------------------------------------------------------------

==============================================================================


      Code (inc. data)   RO Data    RW Data    ZI Data      Debug   

     87728       3774       1240        464     113448     950663   Grand Totals
     87728       3774       1240         52     113448     950663   ELF Image Totals (compressed)
     87728       3774       1240         52          0          0   ROM Totals

==============================================================================

    Total RO  Size (Code + RO Data)                88968 (  86.88kB)
    Total RW  Size (RW Data + ZI Data)            113912 ( 111.24kB)
    Total ROM Size (Code + RO Data + RW Data)      89020 (  86.93kB)

==============================================================================

